
main.elf:     file format elf32-littlearm


Disassembly of section .crt0:

08000000 <__text_start>:
 8000000:	ea00002e 	b	80000c0 <rom_header_end>
	...
 80000b0:	00963130 	addseq	r3, r6, r0, lsr r1
	...
 80000bc:	0000f000 	andeq	pc, r0, r0

080000c0 <rom_header_end>:
 80000c0:	ea000006 	b	80000e0 <start_vector>

080000c4 <__boot_method>:
	...

080000c5 <__slave_number>:
	...

080000e0 <start_vector>:
 80000e0:	e3a00301 	mov	r0, #67108864	; 0x4000000
 80000e4:	e5800208 	str	r0, [r0, #520]	; 0x208
 80000e8:	e3a00012 	mov	r0, #18
 80000ec:	e129f000 	msr	CPSR_fc, r0
 80000f0:	e59fd0b8 	ldr	sp, [pc, #184]	; 80001b0 <CIDExit+0x4>
 80000f4:	e3a0001f 	mov	r0, #31
 80000f8:	e129f000 	msr	CPSR_fc, r0
 80000fc:	e59fd0b0 	ldr	sp, [pc, #176]	; 80001b4 <CIDExit+0x8>
 8000100:	e28f0001 	add	r0, pc, #1
 8000104:	e12fff10 	bx	r0
 8000108:	482b      	ldr	r0, [pc, #172]	; (80001b8 <CIDExit+0xc>)
 800010a:	0140      	lsls	r0, r0, #5
 800010c:	d20b      	bcs.n	8000126 <DoEWRAMClear>
 800010e:	4678      	mov	r0, pc
 8000110:	0140      	lsls	r0, r0, #5
 8000112:	d30d      	bcc.n	8000130 <SkipEWRAMClear>
 8000114:	2202      	movs	r2, #2
 8000116:	0612      	lsls	r2, r2, #24
 8000118:	4b28      	ldr	r3, [pc, #160]	; (80001bc <CIDExit+0x10>)
 800011a:	1a9b      	subs	r3, r3, r2
 800011c:	1c16      	adds	r6, r2, #0
 800011e:	0091      	lsls	r1, r2, #2
 8000120:	f000 f83c 	bl	800019c <CopyMem>
 8000124:	4730      	bx	r6

08000126 <DoEWRAMClear>:
 8000126:	2140      	movs	r1, #64	; 0x40
 8000128:	0309      	lsls	r1, r1, #12
 800012a:	01c8      	lsls	r0, r1, #7
 800012c:	f000 f82b 	bl	8000186 <ClearMem>

08000130 <SkipEWRAMClear>:
 8000130:	4823      	ldr	r0, [pc, #140]	; (80001c0 <CIDExit+0x14>)
 8000132:	4924      	ldr	r1, [pc, #144]	; (80001c4 <CIDExit+0x18>)
 8000134:	1a09      	subs	r1, r1, r0
 8000136:	f000 f826 	bl	8000186 <ClearMem>
 800013a:	4823      	ldr	r0, [pc, #140]	; (80001c8 <CIDExit+0x1c>)
 800013c:	4923      	ldr	r1, [pc, #140]	; (80001cc <CIDExit+0x20>)
 800013e:	1a09      	subs	r1, r1, r0
 8000140:	f000 f821 	bl	8000186 <ClearMem>
 8000144:	4922      	ldr	r1, [pc, #136]	; (80001d0 <CIDExit+0x24>)
 8000146:	4a23      	ldr	r2, [pc, #140]	; (80001d4 <CIDExit+0x28>)
 8000148:	4c23      	ldr	r4, [pc, #140]	; (80001d8 <CIDExit+0x2c>)
 800014a:	f000 f826 	bl	800019a <CopyMemChk>
 800014e:	4923      	ldr	r1, [pc, #140]	; (80001dc <CIDExit+0x30>)
 8000150:	4a23      	ldr	r2, [pc, #140]	; (80001e0 <CIDExit+0x34>)
 8000152:	4c24      	ldr	r4, [pc, #144]	; (80001e4 <CIDExit+0x38>)
 8000154:	f000 f821 	bl	800019a <CopyMemChk>
 8000158:	4a23      	ldr	r2, [pc, #140]	; (80001e8 <CIDExit+0x3c>)
 800015a:	4924      	ldr	r1, [pc, #144]	; (80001ec <CIDExit+0x40>)
 800015c:	1a53      	subs	r3, r2, r1
 800015e:	d002      	beq.n	8000166 <CIW0Skip>
 8000160:	4a23      	ldr	r2, [pc, #140]	; (80001f0 <CIDExit+0x44>)
 8000162:	f000 f81b 	bl	800019c <CopyMem>

08000166 <CIW0Skip>:
 8000166:	4923      	ldr	r1, [pc, #140]	; (80001f4 <CIDExit+0x48>)
 8000168:	4a23      	ldr	r2, [pc, #140]	; (80001f8 <CIDExit+0x4c>)
 800016a:	4c24      	ldr	r4, [pc, #144]	; (80001fc <CIDExit+0x50>)
 800016c:	f000 f815 	bl	800019a <CopyMemChk>

08000170 <CEW0Skip>:
 8000170:	4923      	ldr	r1, [pc, #140]	; (8000200 <CIDExit+0x54>)
 8000172:	4824      	ldr	r0, [pc, #144]	; (8000204 <CIDExit+0x58>)
 8000174:	6008      	str	r0, [r1, #0]
 8000176:	4b24      	ldr	r3, [pc, #144]	; (8000208 <CIDExit+0x5c>)
 8000178:	f000 f80e 	bl	8000198 <_blx_r3_stub>
 800017c:	2000      	movs	r0, #0
 800017e:	2100      	movs	r1, #0
 8000180:	4b22      	ldr	r3, [pc, #136]	; (800020c <CIDExit+0x60>)
 8000182:	f000 f809 	bl	8000198 <_blx_r3_stub>

08000186 <ClearMem>:
 8000186:	2203      	movs	r2, #3
 8000188:	1889      	adds	r1, r1, r2
 800018a:	4391      	bics	r1, r2
 800018c:	d003      	beq.n	8000196 <ClearMX>
 800018e:	2200      	movs	r2, #0

08000190 <ClrLoop>:
 8000190:	c004      	stmia	r0!, {r2}
 8000192:	3904      	subs	r1, #4
 8000194:	d1fc      	bne.n	8000190 <ClrLoop>

08000196 <ClearMX>:
 8000196:	4770      	bx	lr

08000198 <_blx_r3_stub>:
 8000198:	4718      	bx	r3

0800019a <CopyMemChk>:
 800019a:	1aa3      	subs	r3, r4, r2

0800019c <CopyMem>:
 800019c:	2003      	movs	r0, #3
 800019e:	181b      	adds	r3, r3, r0
 80001a0:	4383      	bics	r3, r0
 80001a2:	d003      	beq.n	80001ac <CIDExit>

080001a4 <CIDLoop>:
 80001a4:	c901      	ldmia	r1!, {r0}
 80001a6:	c201      	stmia	r2!, {r0}
 80001a8:	3b04      	subs	r3, #4
 80001aa:	d1fb      	bne.n	80001a4 <CIDLoop>

080001ac <CIDExit>:
 80001ac:	4770      	bx	lr
 80001ae:	46c0      	nop			; (mov r8, r8)
 80001b0:	03007fa0 	movweq	r7, #4000	; 0xfa0
 80001b4:	03007f00 	movweq	r7, #3840	; 0xf00
 80001b8:	08000000 	stmdaeq	r0, {}	; <UNPREDICTABLE>
 80001bc:	020011a4 	andeq	r1, r0, #164, 2	; 0x29
 80001c0:	030001e8 	movweq	r0, #488	; 0x1e8
 80001c4:	03002118 	movweq	r2, #280	; 0x118
 80001c8:	020011a4 	andeq	r1, r0, #164, 2	; 0x29
 80001cc:	020011a4 	andeq	r1, r0, #164, 2	; 0x29
 80001d0:	08014a84 	stmdaeq	r1, {r2, r7, r9, fp, lr}
 80001d4:	03002118 	movweq	r2, #280	; 0x118
 80001d8:	03002bd0 	movweq	r2, #3024	; 0xbd0
 80001dc:	0801489c 	stmdaeq	r1, {r2, r3, r4, r7, fp, lr}
 80001e0:	03000000 	movweq	r0, #0
 80001e4:	030001e8 	movweq	r0, #488	; 0x1e8
 80001e8:	0801553c 	stmdaeq	r1, {r2, r3, r4, r5, r8, sl, ip, lr}
 80001ec:	0801553c 	stmdaeq	r1, {r2, r3, r4, r5, r8, sl, ip, lr}
 80001f0:	03002bd0 	movweq	r2, #3024	; 0xbd0
 80001f4:	0801553c 	stmdaeq	r1, {r2, r3, r4, r5, r8, sl, ip, lr}
 80001f8:	02000000 	andeq	r0, r0, #0
 80001fc:	020011a4 	andeq	r1, r0, #164, 2	; 0x29
 8000200:	03000c08 	movweq	r0, #3080	; 0xc08
 8000204:	02040000 	andeq	r0, r4, #0
 8000208:	0800b299 	stmdaeq	r0, {r0, r3, r4, r7, r9, ip, sp, pc}
 800020c:	0800af69 	stmdaeq	r0, {r0, r3, r5, r6, r8, r9, sl, fp, sp, pc}

Disassembly of section .init:

08000210 <_init>:
 8000210:	b5f8      	push	{r3, r4, r5, r6, r7, lr}
 8000212:	46c0      	nop			; (mov r8, r8)
 8000214:	bcf8      	pop	{r3, r4, r5, r6, r7}
 8000216:	bc08      	pop	{r3}
 8000218:	469e      	mov	lr, r3
 800021a:	4770      	bx	lr

Disassembly of section .text:

08000220 <CPUCE>:
 8000220:	b5f8      	push	{r3, r4, r5, r6, r7, lr}
 8000222:	4dd6      	ldr	r5, [pc, #856]	; (800057c <CPUCE+0x35c>)
 8000224:	f004 fc98 	bl	8004b58 <CPU+0x14c4>
 8000228:	2320      	movs	r3, #32
 800022a:	4cd5      	ldr	r4, [pc, #852]	; (8000580 <CPUCE+0x360>)
 800022c:	54e0      	strb	r0, [r4, r3]
 800022e:	28ff      	cmp	r0, #255	; 0xff
 8000230:	d901      	bls.n	8000236 <CPUCE+0x16>
 8000232:	f002 f9b0 	bl	8002596 <CPUCE+0x2376>
 8000236:	4bd3      	ldr	r3, [pc, #844]	; (8000584 <CPUCE+0x364>)
 8000238:	0080      	lsls	r0, r0, #2
 800023a:	581b      	ldr	r3, [r3, r0]
 800023c:	469f      	mov	pc, r3
 800023e:	f004 fc8b 	bl	8004b58 <CPU+0x14c4>
 8000242:	2320      	movs	r3, #32
 8000244:	54e0      	strb	r0, [r4, r3]
 8000246:	4bd0      	ldr	r3, [pc, #832]	; (8000588 <CPUCE+0x368>)
 8000248:	0400      	lsls	r0, r0, #16
 800024a:	18c1      	adds	r1, r0, r3
 800024c:	2000      	movs	r0, #0
 800024e:	4bcf      	ldr	r3, [pc, #828]	; (800058c <CPUCE+0x36c>)
 8000250:	f004 fc80 	bl	8004b54 <CPU+0x14c0>
 8000254:	2040      	movs	r0, #64	; 0x40
 8000256:	bcf8      	pop	{r3, r4, r5, r6, r7}
 8000258:	bc02      	pop	{r1}
 800025a:	4708      	bx	r1
 800025c:	2001      	movs	r0, #1
 800025e:	49cc      	ldr	r1, [pc, #816]	; (8000590 <CPUCE+0x370>)
 8000260:	4bca      	ldr	r3, [pc, #808]	; (800058c <CPUCE+0x36c>)
 8000262:	f004 fc77 	bl	8004b54 <CPU+0x14c0>
 8000266:	2040      	movs	r0, #64	; 0x40
 8000268:	e7f5      	b.n	8000256 <CPUCE+0x36>
 800026a:	2010      	movs	r0, #16
 800026c:	e7f3      	b.n	8000256 <CPUCE+0x36>
 800026e:	8ae3      	ldrh	r3, [r4, #22]
 8000270:	3301      	adds	r3, #1
 8000272:	82e3      	strh	r3, [r4, #22]
 8000274:	2040      	movs	r0, #64	; 0x40
 8000276:	e7ee      	b.n	8000256 <CPUCE+0x36>
 8000278:	2040      	movs	r0, #64	; 0x40
 800027a:	e7ec      	b.n	8000256 <CPUCE+0x36>
 800027c:	f004 fc6c 	bl	8004b58 <CPU+0x14c4>
 8000280:	7fe3      	ldrb	r3, [r4, #31]
 8000282:	071b      	lsls	r3, r3, #28
 8000284:	d401      	bmi.n	800028a <CPUCE+0x6a>
 8000286:	f002 f97b 	bl	8002580 <CPUCE+0x2360>
 800028a:	200c      	movs	r0, #12
 800028c:	e7e3      	b.n	8000256 <CPUCE+0x36>
 800028e:	8ae3      	ldrh	r3, [r4, #22]
 8000290:	3301      	adds	r3, #1
 8000292:	82e3      	strh	r3, [r4, #22]
 8000294:	2014      	movs	r0, #20
 8000296:	e7de      	b.n	8000256 <CPUCE+0x36>
 8000298:	2007      	movs	r0, #7
 800029a:	4bbe      	ldr	r3, [pc, #760]	; (8000594 <CPUCE+0x374>)
 800029c:	5620      	ldrsb	r0, [r4, r0]
 800029e:	89e5      	ldrh	r5, [r4, #14]
 80002a0:	f004 fc58 	bl	8004b54 <CPU+0x14c0>
 80002a4:	7b63      	ldrb	r3, [r4, #13]
 80002a6:	1829      	adds	r1, r5, r0
 80002a8:	0409      	lsls	r1, r1, #16
 80002aa:	041b      	lsls	r3, r3, #16
 80002ac:	0c09      	lsrs	r1, r1, #16
 80002ae:	4319      	orrs	r1, r3
 80002b0:	2001      	movs	r0, #1
 80002b2:	4bb9      	ldr	r3, [pc, #740]	; (8000598 <CPUCE+0x378>)
 80002b4:	68e6      	ldr	r6, [r4, #12]
 80002b6:	f004 fc4d 	bl	8004b54 <CPU+0x14c0>
 80002ba:	0031      	movs	r1, r6
 80002bc:	0002      	movs	r2, r0
 80002be:	4bb7      	ldr	r3, [pc, #732]	; (800059c <CPUCE+0x37c>)
 80002c0:	2001      	movs	r0, #1
 80002c2:	f004 fc47 	bl	8004b54 <CPU+0x14c0>
 80002c6:	2014      	movs	r0, #20
 80002c8:	e7c5      	b.n	8000256 <CPUCE+0x36>
 80002ca:	2007      	movs	r0, #7
 80002cc:	4bb1      	ldr	r3, [pc, #708]	; (8000594 <CPUCE+0x374>)
 80002ce:	5620      	ldrsb	r0, [r4, r0]
 80002d0:	8965      	ldrh	r5, [r4, #10]
 80002d2:	f004 fc3f 	bl	8004b54 <CPU+0x14c0>
 80002d6:	7a63      	ldrb	r3, [r4, #9]
 80002d8:	1829      	adds	r1, r5, r0
 80002da:	0409      	lsls	r1, r1, #16
 80002dc:	041b      	lsls	r3, r3, #16
 80002de:	0c09      	lsrs	r1, r1, #16
 80002e0:	4319      	orrs	r1, r3
 80002e2:	2001      	movs	r0, #1
 80002e4:	4bac      	ldr	r3, [pc, #688]	; (8000598 <CPUCE+0x378>)
 80002e6:	68e6      	ldr	r6, [r4, #12]
 80002e8:	f004 fc34 	bl	8004b54 <CPU+0x14c0>
 80002ec:	0031      	movs	r1, r6
 80002ee:	0002      	movs	r2, r0
 80002f0:	4baa      	ldr	r3, [pc, #680]	; (800059c <CPUCE+0x37c>)
 80002f2:	2001      	movs	r0, #1
 80002f4:	f004 fc2e 	bl	8004b54 <CPU+0x14c0>
 80002f8:	2014      	movs	r0, #20
 80002fa:	e7ac      	b.n	8000256 <CPUCE+0x36>
 80002fc:	4ba8      	ldr	r3, [pc, #672]	; (80005a0 <CPUCE+0x380>)
 80002fe:	f004 fc29 	bl	8004b54 <CPU+0x14c0>
 8000302:	4ba5      	ldr	r3, [pc, #660]	; (8000598 <CPUCE+0x378>)
 8000304:	0001      	movs	r1, r0
 8000306:	2001      	movs	r0, #1
 8000308:	f004 fc24 	bl	8004b54 <CPU+0x14c0>
 800030c:	70a0      	strb	r0, [r4, #2]
 800030e:	2014      	movs	r0, #20
 8000310:	e7a1      	b.n	8000256 <CPUCE+0x36>
 8000312:	78e0      	ldrb	r0, [r4, #3]
 8000314:	4ba3      	ldr	r3, [pc, #652]	; (80005a4 <CPUCE+0x384>)
 8000316:	f004 fc1d 	bl	8004b54 <CPU+0x14c0>
 800031a:	70e0      	strb	r0, [r4, #3]
 800031c:	200c      	movs	r0, #12
 800031e:	e79a      	b.n	8000256 <CPUCE+0x36>
 8000320:	79e3      	ldrb	r3, [r4, #7]
 8000322:	015a      	lsls	r2, r3, #5
 8000324:	0119      	lsls	r1, r3, #4
 8000326:	071b      	lsls	r3, r3, #28
 8000328:	1889      	adds	r1, r1, r2
 800032a:	0fdb      	lsrs	r3, r3, #31
 800032c:	18c9      	adds	r1, r1, r3
 800032e:	8960      	ldrh	r0, [r4, #10]
 8000330:	4b9d      	ldr	r3, [pc, #628]	; (80005a8 <CPUCE+0x388>)
 8000332:	f004 fc0f 	bl	8004b54 <CPU+0x14c0>
 8000336:	2202      	movs	r2, #2
 8000338:	7fa3      	ldrb	r3, [r4, #30]
 800033a:	4393      	bics	r3, r2
 800033c:	80e0      	strh	r0, [r4, #6]
 800033e:	77a3      	strb	r3, [r4, #30]
 8000340:	2028      	movs	r0, #40	; 0x28
 8000342:	e788      	b.n	8000256 <CPUCE+0x36>
 8000344:	f004 fc08 	bl	8004b58 <CPU+0x14c4>
 8000348:	79e1      	ldrb	r1, [r4, #7]
 800034a:	0200      	lsls	r0, r0, #8
 800034c:	4301      	orrs	r1, r0
 800034e:	0409      	lsls	r1, r1, #16
 8000350:	0c09      	lsrs	r1, r1, #16
 8000352:	8a60      	ldrh	r0, [r4, #18]
 8000354:	4b94      	ldr	r3, [pc, #592]	; (80005a8 <CPUCE+0x388>)
 8000356:	f004 fbfd 	bl	8004b54 <CPU+0x14c0>
 800035a:	8260      	strh	r0, [r4, #18]
 800035c:	2010      	movs	r0, #16
 800035e:	e77a      	b.n	8000256 <CPUCE+0x36>
 8000360:	4e91      	ldr	r6, [pc, #580]	; (80005a8 <CPUCE+0x388>)
 8000362:	f004 fbf9 	bl	8004b58 <CPU+0x14c4>
 8000366:	0143      	lsls	r3, r0, #5
 8000368:	0101      	lsls	r1, r0, #4
 800036a:	0700      	lsls	r0, r0, #28
 800036c:	18c9      	adds	r1, r1, r3
 800036e:	0fc0      	lsrs	r0, r0, #31
 8000370:	1809      	adds	r1, r1, r0
 8000372:	0409      	lsls	r1, r1, #16
 8000374:	0c09      	lsrs	r1, r1, #16
 8000376:	8960      	ldrh	r0, [r4, #10]
 8000378:	f004 fbef 	bl	8004b5a <CPU+0x14c6>
 800037c:	2202      	movs	r2, #2
 800037e:	7fa3      	ldrb	r3, [r4, #30]
 8000380:	4393      	bics	r3, r2
 8000382:	80e0      	strh	r0, [r4, #6]
 8000384:	77a3      	strb	r3, [r4, #30]
 8000386:	2028      	movs	r0, #40	; 0x28
 8000388:	e765      	b.n	8000256 <CPUCE+0x36>
 800038a:	f004 fbe5 	bl	8004b58 <CPU+0x14c4>
 800038e:	0401      	lsls	r1, r0, #16
 8000390:	0c09      	lsrs	r1, r1, #16
 8000392:	8a60      	ldrh	r0, [r4, #18]
 8000394:	4e84      	ldr	r6, [pc, #528]	; (80005a8 <CPUCE+0x388>)
 8000396:	f004 fbe0 	bl	8004b5a <CPU+0x14c6>
 800039a:	8260      	strh	r0, [r4, #18]
 800039c:	e7e1      	b.n	8000362 <CPUCE+0x142>
 800039e:	2007      	movs	r0, #7
 80003a0:	4b7c      	ldr	r3, [pc, #496]	; (8000594 <CPUCE+0x374>)
 80003a2:	5620      	ldrsb	r0, [r4, r0]
 80003a4:	89e5      	ldrh	r5, [r4, #14]
 80003a6:	f004 fbd5 	bl	8004b54 <CPU+0x14c0>
 80003aa:	7b63      	ldrb	r3, [r4, #13]
 80003ac:	1829      	adds	r1, r5, r0
 80003ae:	0409      	lsls	r1, r1, #16
 80003b0:	041b      	lsls	r3, r3, #16
 80003b2:	0c09      	lsrs	r1, r1, #16
 80003b4:	4319      	orrs	r1, r3
 80003b6:	2001      	movs	r0, #1
 80003b8:	4b77      	ldr	r3, [pc, #476]	; (8000598 <CPUCE+0x378>)
 80003ba:	68a6      	ldr	r6, [r4, #8]
 80003bc:	f004 fbca 	bl	8004b54 <CPU+0x14c0>
 80003c0:	0031      	movs	r1, r6
 80003c2:	0002      	movs	r2, r0
 80003c4:	4b75      	ldr	r3, [pc, #468]	; (800059c <CPUCE+0x37c>)
 80003c6:	2001      	movs	r0, #1
 80003c8:	f004 fbc4 	bl	8004b54 <CPU+0x14c0>
 80003cc:	2014      	movs	r0, #20
 80003ce:	e742      	b.n	8000256 <CPUCE+0x36>
 80003d0:	2007      	movs	r0, #7
 80003d2:	4b70      	ldr	r3, [pc, #448]	; (8000594 <CPUCE+0x374>)
 80003d4:	5620      	ldrsb	r0, [r4, r0]
 80003d6:	8965      	ldrh	r5, [r4, #10]
 80003d8:	f004 fbbc 	bl	8004b54 <CPU+0x14c0>
 80003dc:	7a63      	ldrb	r3, [r4, #9]
 80003de:	1829      	adds	r1, r5, r0
 80003e0:	0409      	lsls	r1, r1, #16
 80003e2:	041b      	lsls	r3, r3, #16
 80003e4:	0c09      	lsrs	r1, r1, #16
 80003e6:	4319      	orrs	r1, r3
 80003e8:	2001      	movs	r0, #1
 80003ea:	4b6b      	ldr	r3, [pc, #428]	; (8000598 <CPUCE+0x378>)
 80003ec:	68a6      	ldr	r6, [r4, #8]
 80003ee:	f004 fbb1 	bl	8004b54 <CPU+0x14c0>
 80003f2:	0031      	movs	r1, r6
 80003f4:	0002      	movs	r2, r0
 80003f6:	4b69      	ldr	r3, [pc, #420]	; (800059c <CPUCE+0x37c>)
 80003f8:	2001      	movs	r0, #1
 80003fa:	f004 fbab 	bl	8004b54 <CPU+0x14c0>
 80003fe:	2014      	movs	r0, #20
 8000400:	e729      	b.n	8000256 <CPUCE+0x36>
 8000402:	f004 fba9 	bl	8004b58 <CPU+0x14c4>
 8000406:	0600      	lsls	r0, r0, #24
 8000408:	4b62      	ldr	r3, [pc, #392]	; (8000594 <CPUCE+0x374>)
 800040a:	1600      	asrs	r0, r0, #24
 800040c:	89e5      	ldrh	r5, [r4, #14]
 800040e:	f004 fba1 	bl	8004b54 <CPU+0x14c0>
 8000412:	7b63      	ldrb	r3, [r4, #13]
 8000414:	1829      	adds	r1, r5, r0
 8000416:	0409      	lsls	r1, r1, #16
 8000418:	041b      	lsls	r3, r3, #16
 800041a:	0c09      	lsrs	r1, r1, #16
 800041c:	4319      	orrs	r1, r3
 800041e:	2001      	movs	r0, #1
 8000420:	4b5d      	ldr	r3, [pc, #372]	; (8000598 <CPUCE+0x378>)
 8000422:	68a6      	ldr	r6, [r4, #8]
 8000424:	f004 fb96 	bl	8004b54 <CPU+0x14c0>
 8000428:	0031      	movs	r1, r6
 800042a:	0002      	movs	r2, r0
 800042c:	4b5b      	ldr	r3, [pc, #364]	; (800059c <CPUCE+0x37c>)
 800042e:	2001      	movs	r0, #1
 8000430:	f004 fb90 	bl	8004b54 <CPU+0x14c0>
 8000434:	2014      	movs	r0, #20
 8000436:	e70e      	b.n	8000256 <CPUCE+0x36>
 8000438:	f004 fb8e 	bl	8004b58 <CPU+0x14c4>
 800043c:	0600      	lsls	r0, r0, #24
 800043e:	4b55      	ldr	r3, [pc, #340]	; (8000594 <CPUCE+0x374>)
 8000440:	1600      	asrs	r0, r0, #24
 8000442:	8965      	ldrh	r5, [r4, #10]
 8000444:	f004 fb86 	bl	8004b54 <CPU+0x14c0>
 8000448:	7a63      	ldrb	r3, [r4, #9]
 800044a:	1829      	adds	r1, r5, r0
 800044c:	0409      	lsls	r1, r1, #16
 800044e:	041b      	lsls	r3, r3, #16
 8000450:	0c09      	lsrs	r1, r1, #16
 8000452:	4319      	orrs	r1, r3
 8000454:	2001      	movs	r0, #1
 8000456:	4b50      	ldr	r3, [pc, #320]	; (8000598 <CPUCE+0x378>)
 8000458:	68a6      	ldr	r6, [r4, #8]
 800045a:	f004 fb7b 	bl	8004b54 <CPU+0x14c0>
 800045e:	0031      	movs	r1, r6
 8000460:	0002      	movs	r2, r0
 8000462:	4b4e      	ldr	r3, [pc, #312]	; (800059c <CPUCE+0x37c>)
 8000464:	2001      	movs	r0, #1
 8000466:	f004 fb75 	bl	8004b54 <CPU+0x14c0>
 800046a:	2014      	movs	r0, #20
 800046c:	e6f3      	b.n	8000256 <CPUCE+0x36>
 800046e:	f004 fb73 	bl	8004b58 <CPU+0x14c4>
 8000472:	79e1      	ldrb	r1, [r4, #7]
 8000474:	0200      	lsls	r0, r0, #8
 8000476:	4301      	orrs	r1, r0
 8000478:	0409      	lsls	r1, r1, #16
 800047a:	0c09      	lsrs	r1, r1, #16
 800047c:	88e0      	ldrh	r0, [r4, #6]
 800047e:	4b4b      	ldr	r3, [pc, #300]	; (80005ac <CPUCE+0x38c>)
 8000480:	f004 fb68 	bl	8004b54 <CPU+0x14c0>
 8000484:	80e0      	strh	r0, [r4, #6]
 8000486:	2018      	movs	r0, #24
 8000488:	e6e5      	b.n	8000256 <CPUCE+0x36>
 800048a:	f004 fb65 	bl	8004b58 <CPU+0x14c4>
 800048e:	79e1      	ldrb	r1, [r4, #7]
 8000490:	0200      	lsls	r0, r0, #8
 8000492:	4301      	orrs	r1, r0
 8000494:	0409      	lsls	r1, r1, #16
 8000496:	0c09      	lsrs	r1, r1, #16
 8000498:	8860      	ldrh	r0, [r4, #2]
 800049a:	4b44      	ldr	r3, [pc, #272]	; (80005ac <CPUCE+0x38c>)
 800049c:	f004 fb5a 	bl	8004b54 <CPU+0x14c0>
 80004a0:	8060      	strh	r0, [r4, #2]
 80004a2:	2018      	movs	r0, #24
 80004a4:	e6d7      	b.n	8000256 <CPUCE+0x36>
 80004a6:	4b3e      	ldr	r3, [pc, #248]	; (80005a0 <CPUCE+0x380>)
 80004a8:	f004 fb54 	bl	8004b54 <CPU+0x14c0>
 80004ac:	4b3f      	ldr	r3, [pc, #252]	; (80005ac <CPUCE+0x38c>)
 80004ae:	0001      	movs	r1, r0
 80004b0:	88e0      	ldrh	r0, [r4, #6]
 80004b2:	f004 fb4f 	bl	8004b54 <CPU+0x14c0>
 80004b6:	80e0      	strh	r0, [r4, #6]
 80004b8:	2010      	movs	r0, #16
 80004ba:	e6cc      	b.n	8000256 <CPUCE+0x36>
 80004bc:	4b38      	ldr	r3, [pc, #224]	; (80005a0 <CPUCE+0x380>)
 80004be:	f004 fb49 	bl	8004b54 <CPU+0x14c0>
 80004c2:	4b3a      	ldr	r3, [pc, #232]	; (80005ac <CPUCE+0x38c>)
 80004c4:	0001      	movs	r1, r0
 80004c6:	8860      	ldrh	r0, [r4, #2]
 80004c8:	f004 fb44 	bl	8004b54 <CPU+0x14c0>
 80004cc:	8060      	strh	r0, [r4, #2]
 80004ce:	2010      	movs	r0, #16
 80004d0:	e6c1      	b.n	8000256 <CPUCE+0x36>
 80004d2:	2007      	movs	r0, #7
 80004d4:	4b2f      	ldr	r3, [pc, #188]	; (8000594 <CPUCE+0x374>)
 80004d6:	5620      	ldrsb	r0, [r4, r0]
 80004d8:	89e5      	ldrh	r5, [r4, #14]
 80004da:	f004 fb3b 	bl	8004b54 <CPU+0x14c0>
 80004de:	7b63      	ldrb	r3, [r4, #13]
 80004e0:	1829      	adds	r1, r5, r0
 80004e2:	0409      	lsls	r1, r1, #16
 80004e4:	041b      	lsls	r3, r3, #16
 80004e6:	0c09      	lsrs	r1, r1, #16
 80004e8:	4319      	orrs	r1, r3
 80004ea:	2001      	movs	r0, #1
 80004ec:	4b2a      	ldr	r3, [pc, #168]	; (8000598 <CPUCE+0x378>)
 80004ee:	6866      	ldr	r6, [r4, #4]
 80004f0:	f004 fb30 	bl	8004b54 <CPU+0x14c0>
 80004f4:	0031      	movs	r1, r6
 80004f6:	0002      	movs	r2, r0
 80004f8:	4b28      	ldr	r3, [pc, #160]	; (800059c <CPUCE+0x37c>)
 80004fa:	2001      	movs	r0, #1
 80004fc:	f004 fb2a 	bl	8004b54 <CPU+0x14c0>
 8000500:	2014      	movs	r0, #20
 8000502:	e6a8      	b.n	8000256 <CPUCE+0x36>
 8000504:	2007      	movs	r0, #7
 8000506:	4b23      	ldr	r3, [pc, #140]	; (8000594 <CPUCE+0x374>)
 8000508:	5620      	ldrsb	r0, [r4, r0]
 800050a:	8965      	ldrh	r5, [r4, #10]
 800050c:	f004 fb22 	bl	8004b54 <CPU+0x14c0>
 8000510:	7a63      	ldrb	r3, [r4, #9]
 8000512:	1829      	adds	r1, r5, r0
 8000514:	0409      	lsls	r1, r1, #16
 8000516:	041b      	lsls	r3, r3, #16
 8000518:	0c09      	lsrs	r1, r1, #16
 800051a:	4319      	orrs	r1, r3
 800051c:	2001      	movs	r0, #1
 800051e:	4b1e      	ldr	r3, [pc, #120]	; (8000598 <CPUCE+0x378>)
 8000520:	6866      	ldr	r6, [r4, #4]
 8000522:	f004 fb17 	bl	8004b54 <CPU+0x14c0>
 8000526:	0031      	movs	r1, r6
 8000528:	0002      	movs	r2, r0
 800052a:	4b1c      	ldr	r3, [pc, #112]	; (800059c <CPUCE+0x37c>)
 800052c:	2001      	movs	r0, #1
 800052e:	f004 fb11 	bl	8004b54 <CPU+0x14c0>
 8000532:	2014      	movs	r0, #20
 8000534:	e68f      	b.n	8000256 <CPUCE+0x36>
 8000536:	f004 fb0f 	bl	8004b58 <CPU+0x14c4>
 800053a:	0600      	lsls	r0, r0, #24
 800053c:	4b15      	ldr	r3, [pc, #84]	; (8000594 <CPUCE+0x374>)
 800053e:	1600      	asrs	r0, r0, #24
 8000540:	89e5      	ldrh	r5, [r4, #14]
 8000542:	f004 fb07 	bl	8004b54 <CPU+0x14c0>
 8000546:	7b63      	ldrb	r3, [r4, #13]
 8000548:	1829      	adds	r1, r5, r0
 800054a:	0409      	lsls	r1, r1, #16
 800054c:	041b      	lsls	r3, r3, #16
 800054e:	0c09      	lsrs	r1, r1, #16
 8000550:	4319      	orrs	r1, r3
 8000552:	2001      	movs	r0, #1
 8000554:	4b10      	ldr	r3, [pc, #64]	; (8000598 <CPUCE+0x378>)
 8000556:	6866      	ldr	r6, [r4, #4]
 8000558:	f004 fafc 	bl	8004b54 <CPU+0x14c0>
 800055c:	0031      	movs	r1, r6
 800055e:	0002      	movs	r2, r0
 8000560:	4b0e      	ldr	r3, [pc, #56]	; (800059c <CPUCE+0x37c>)
 8000562:	2001      	movs	r0, #1
 8000564:	f004 faf6 	bl	8004b54 <CPU+0x14c0>
 8000568:	2014      	movs	r0, #20
 800056a:	e674      	b.n	8000256 <CPUCE+0x36>
 800056c:	78e0      	ldrb	r0, [r4, #3]
 800056e:	4b10      	ldr	r3, [pc, #64]	; (80005b0 <CPUCE+0x390>)
 8000570:	f004 faf0 	bl	8004b54 <CPU+0x14c0>
 8000574:	70e0      	strb	r0, [r4, #3]
 8000576:	200c      	movs	r0, #12
 8000578:	e66d      	b.n	8000256 <CPUCE+0x36>
 800057a:	46c0      	nop			; (mov r8, r8)
 800057c:	08005449 	stmdaeq	r0, {r0, r3, r6, sl, ip, lr}
 8000580:	02000004 	andeq	r0, r0, #4
 8000584:	08010cd8 	stmdaeq	r1, {r3, r4, r6, r7, sl, fp}
 8000588:	0000ceff 	strdeq	ip, [r0], -pc	; <UNPREDICTABLE>
 800058c:	080060d5 	stmdaeq	r0, {r0, r2, r4, r6, r7, sp, lr}
 8000590:	0000acce 	andeq	sl, r0, lr, asr #25
 8000594:	08005511 	stmdaeq	r0, {r0, r4, r8, sl, ip, lr}
 8000598:	08004b5d 	stmdaeq	r0, {r0, r2, r3, r4, r6, r8, r9, fp, lr}
 800059c:	08004be9 	stmdaeq	r0, {r0, r3, r5, r6, r7, r8, r9, fp, lr}
 80005a0:	08005481 	stmdaeq	r0, {r0, r7, sl, ip, lr}
 80005a4:	08005765 	stmdaeq	r0, {r0, r2, r5, r6, r8, r9, sl, ip, lr}
 80005a8:	080056b1 	stmdaeq	r0, {r0, r4, r5, r7, r9, sl, ip, lr}
 80005ac:	08005709 	stmdaeq	r0, {r0, r3, r8, r9, sl, ip, lr}
 80005b0:	08005939 	stmdaeq	r0, {r0, r3, r4, r5, r8, fp, ip, lr}
 80005b4:	6864      	ldr	r4, [r4, #4]
 80005b6:	4be8      	ldr	r3, [pc, #928]	; (8000958 <CPUCE+0x738>)
 80005b8:	0021      	movs	r1, r4
 80005ba:	2001      	movs	r0, #1
 80005bc:	f004 faca 	bl	8004b54 <CPU+0x14c0>
 80005c0:	4be6      	ldr	r3, [pc, #920]	; (800095c <CPUCE+0x73c>)
 80005c2:	f004 fac7 	bl	8004b54 <CPU+0x14c0>
 80005c6:	0021      	movs	r1, r4
 80005c8:	0002      	movs	r2, r0
 80005ca:	4be5      	ldr	r3, [pc, #916]	; (8000960 <CPUCE+0x740>)
 80005cc:	2001      	movs	r0, #1
 80005ce:	f004 fac1 	bl	8004b54 <CPU+0x14c0>
 80005d2:	2010      	movs	r0, #16
 80005d4:	e63f      	b.n	8000256 <CPUCE+0x36>
 80005d6:	f004 fabf 	bl	8004b58 <CPU+0x14c4>
 80005da:	69a4      	ldr	r4, [r4, #24]
 80005dc:	4304      	orrs	r4, r0
 80005de:	0021      	movs	r1, r4
 80005e0:	4bdd      	ldr	r3, [pc, #884]	; (8000958 <CPUCE+0x738>)
 80005e2:	2001      	movs	r0, #1
 80005e4:	f004 fab6 	bl	8004b54 <CPU+0x14c0>
 80005e8:	4bdc      	ldr	r3, [pc, #880]	; (800095c <CPUCE+0x73c>)
 80005ea:	f004 fab3 	bl	8004b54 <CPU+0x14c0>
 80005ee:	0021      	movs	r1, r4
 80005f0:	0002      	movs	r2, r0
 80005f2:	4bdb      	ldr	r3, [pc, #876]	; (8000960 <CPUCE+0x740>)
 80005f4:	2001      	movs	r0, #1
 80005f6:	f004 faad 	bl	8004b54 <CPU+0x14c0>
 80005fa:	2014      	movs	r0, #20
 80005fc:	e62b      	b.n	8000256 <CPUCE+0x36>
 80005fe:	78a0      	ldrb	r0, [r4, #2]
 8000600:	4bd6      	ldr	r3, [pc, #856]	; (800095c <CPUCE+0x73c>)
 8000602:	f004 faa7 	bl	8004b54 <CPU+0x14c0>
 8000606:	70a0      	strb	r0, [r4, #2]
 8000608:	200c      	movs	r0, #12
 800060a:	e624      	b.n	8000256 <CPUCE+0x36>
 800060c:	78e0      	ldrb	r0, [r4, #3]
 800060e:	4bd3      	ldr	r3, [pc, #844]	; (800095c <CPUCE+0x73c>)
 8000610:	f004 faa0 	bl	8004b54 <CPU+0x14c0>
 8000614:	70e0      	strb	r0, [r4, #3]
 8000616:	200c      	movs	r0, #12
 8000618:	e61d      	b.n	8000256 <CPUCE+0x36>
 800061a:	6864      	ldr	r4, [r4, #4]
 800061c:	4bce      	ldr	r3, [pc, #824]	; (8000958 <CPUCE+0x738>)
 800061e:	0021      	movs	r1, r4
 8000620:	2001      	movs	r0, #1
 8000622:	f004 fa97 	bl	8004b54 <CPU+0x14c0>
 8000626:	4bcf      	ldr	r3, [pc, #828]	; (8000964 <CPUCE+0x744>)
 8000628:	f004 fa94 	bl	8004b54 <CPU+0x14c0>
 800062c:	0021      	movs	r1, r4
 800062e:	0002      	movs	r2, r0
 8000630:	4bcb      	ldr	r3, [pc, #812]	; (8000960 <CPUCE+0x740>)
 8000632:	2001      	movs	r0, #1
 8000634:	f004 fa8e 	bl	8004b54 <CPU+0x14c0>
 8000638:	2010      	movs	r0, #16
 800063a:	e60c      	b.n	8000256 <CPUCE+0x36>
 800063c:	f004 fa8c 	bl	8004b58 <CPU+0x14c4>
 8000640:	69a4      	ldr	r4, [r4, #24]
 8000642:	4304      	orrs	r4, r0
 8000644:	0021      	movs	r1, r4
 8000646:	4bc4      	ldr	r3, [pc, #784]	; (8000958 <CPUCE+0x738>)
 8000648:	2001      	movs	r0, #1
 800064a:	f004 fa83 	bl	8004b54 <CPU+0x14c0>
 800064e:	4bc5      	ldr	r3, [pc, #788]	; (8000964 <CPUCE+0x744>)
 8000650:	f004 fa80 	bl	8004b54 <CPU+0x14c0>
 8000654:	0021      	movs	r1, r4
 8000656:	0002      	movs	r2, r0
 8000658:	4bc1      	ldr	r3, [pc, #772]	; (8000960 <CPUCE+0x740>)
 800065a:	2001      	movs	r0, #1
 800065c:	f004 fa7a 	bl	8004b54 <CPU+0x14c0>
 8000660:	2014      	movs	r0, #20
 8000662:	e5f8      	b.n	8000256 <CPUCE+0x36>
 8000664:	78a0      	ldrb	r0, [r4, #2]
 8000666:	4bbf      	ldr	r3, [pc, #764]	; (8000964 <CPUCE+0x744>)
 8000668:	f004 fa74 	bl	8004b54 <CPU+0x14c0>
 800066c:	70a0      	strb	r0, [r4, #2]
 800066e:	200c      	movs	r0, #12
 8000670:	e5f1      	b.n	8000256 <CPUCE+0x36>
 8000672:	78e0      	ldrb	r0, [r4, #3]
 8000674:	4bbb      	ldr	r3, [pc, #748]	; (8000964 <CPUCE+0x744>)
 8000676:	f004 fa6d 	bl	8004b54 <CPU+0x14c0>
 800067a:	70e0      	strb	r0, [r4, #3]
 800067c:	200c      	movs	r0, #12
 800067e:	e5ea      	b.n	8000256 <CPUCE+0x36>
 8000680:	6864      	ldr	r4, [r4, #4]
 8000682:	4bb5      	ldr	r3, [pc, #724]	; (8000958 <CPUCE+0x738>)
 8000684:	0021      	movs	r1, r4
 8000686:	2001      	movs	r0, #1
 8000688:	f004 fa64 	bl	8004b54 <CPU+0x14c0>
 800068c:	4bb6      	ldr	r3, [pc, #728]	; (8000968 <CPUCE+0x748>)
 800068e:	f004 fa61 	bl	8004b54 <CPU+0x14c0>
 8000692:	0021      	movs	r1, r4
 8000694:	0002      	movs	r2, r0
 8000696:	4bb2      	ldr	r3, [pc, #712]	; (8000960 <CPUCE+0x740>)
 8000698:	2001      	movs	r0, #1
 800069a:	f004 fa5b 	bl	8004b54 <CPU+0x14c0>
 800069e:	2010      	movs	r0, #16
 80006a0:	e5d9      	b.n	8000256 <CPUCE+0x36>
 80006a2:	f004 fa59 	bl	8004b58 <CPU+0x14c4>
 80006a6:	69a4      	ldr	r4, [r4, #24]
 80006a8:	4304      	orrs	r4, r0
 80006aa:	0021      	movs	r1, r4
 80006ac:	4baa      	ldr	r3, [pc, #680]	; (8000958 <CPUCE+0x738>)
 80006ae:	2001      	movs	r0, #1
 80006b0:	f004 fa50 	bl	8004b54 <CPU+0x14c0>
 80006b4:	4bac      	ldr	r3, [pc, #688]	; (8000968 <CPUCE+0x748>)
 80006b6:	f004 fa4d 	bl	8004b54 <CPU+0x14c0>
 80006ba:	0021      	movs	r1, r4
 80006bc:	0002      	movs	r2, r0
 80006be:	4ba8      	ldr	r3, [pc, #672]	; (8000960 <CPUCE+0x740>)
 80006c0:	2001      	movs	r0, #1
 80006c2:	f004 fa47 	bl	8004b54 <CPU+0x14c0>
 80006c6:	2014      	movs	r0, #20
 80006c8:	e5c5      	b.n	8000256 <CPUCE+0x36>
 80006ca:	78a0      	ldrb	r0, [r4, #2]
 80006cc:	4ba6      	ldr	r3, [pc, #664]	; (8000968 <CPUCE+0x748>)
 80006ce:	f004 fa41 	bl	8004b54 <CPU+0x14c0>
 80006d2:	70a0      	strb	r0, [r4, #2]
 80006d4:	200c      	movs	r0, #12
 80006d6:	e5be      	b.n	8000256 <CPUCE+0x36>
 80006d8:	78e0      	ldrb	r0, [r4, #3]
 80006da:	4ba3      	ldr	r3, [pc, #652]	; (8000968 <CPUCE+0x748>)
 80006dc:	f004 fa3a 	bl	8004b54 <CPU+0x14c0>
 80006e0:	70e0      	strb	r0, [r4, #3]
 80006e2:	200c      	movs	r0, #12
 80006e4:	e5b7      	b.n	8000256 <CPUCE+0x36>
 80006e6:	6864      	ldr	r4, [r4, #4]
 80006e8:	4b9b      	ldr	r3, [pc, #620]	; (8000958 <CPUCE+0x738>)
 80006ea:	0021      	movs	r1, r4
 80006ec:	2001      	movs	r0, #1
 80006ee:	f004 fa31 	bl	8004b54 <CPU+0x14c0>
 80006f2:	4b9e      	ldr	r3, [pc, #632]	; (800096c <CPUCE+0x74c>)
 80006f4:	f004 fa2e 	bl	8004b54 <CPU+0x14c0>
 80006f8:	0021      	movs	r1, r4
 80006fa:	0002      	movs	r2, r0
 80006fc:	4b98      	ldr	r3, [pc, #608]	; (8000960 <CPUCE+0x740>)
 80006fe:	2001      	movs	r0, #1
 8000700:	f004 fa28 	bl	8004b54 <CPU+0x14c0>
 8000704:	2010      	movs	r0, #16
 8000706:	e5a6      	b.n	8000256 <CPUCE+0x36>
 8000708:	f004 fa26 	bl	8004b58 <CPU+0x14c4>
 800070c:	69a4      	ldr	r4, [r4, #24]
 800070e:	4304      	orrs	r4, r0
 8000710:	0021      	movs	r1, r4
 8000712:	4b91      	ldr	r3, [pc, #580]	; (8000958 <CPUCE+0x738>)
 8000714:	2001      	movs	r0, #1
 8000716:	f004 fa1d 	bl	8004b54 <CPU+0x14c0>
 800071a:	4b94      	ldr	r3, [pc, #592]	; (800096c <CPUCE+0x74c>)
 800071c:	f004 fa1a 	bl	8004b54 <CPU+0x14c0>
 8000720:	0021      	movs	r1, r4
 8000722:	0002      	movs	r2, r0
 8000724:	4b8e      	ldr	r3, [pc, #568]	; (8000960 <CPUCE+0x740>)
 8000726:	2001      	movs	r0, #1
 8000728:	f004 fa14 	bl	8004b54 <CPU+0x14c0>
 800072c:	2014      	movs	r0, #20
 800072e:	e592      	b.n	8000256 <CPUCE+0x36>
 8000730:	78a0      	ldrb	r0, [r4, #2]
 8000732:	4b8e      	ldr	r3, [pc, #568]	; (800096c <CPUCE+0x74c>)
 8000734:	f004 fa0e 	bl	8004b54 <CPU+0x14c0>
 8000738:	70a0      	strb	r0, [r4, #2]
 800073a:	200c      	movs	r0, #12
 800073c:	e58b      	b.n	8000256 <CPUCE+0x36>
 800073e:	78e0      	ldrb	r0, [r4, #3]
 8000740:	4b8a      	ldr	r3, [pc, #552]	; (800096c <CPUCE+0x74c>)
 8000742:	f004 fa07 	bl	8004b54 <CPU+0x14c0>
 8000746:	70e0      	strb	r0, [r4, #3]
 8000748:	200c      	movs	r0, #12
 800074a:	e584      	b.n	8000256 <CPUCE+0x36>
 800074c:	6864      	ldr	r4, [r4, #4]
 800074e:	4b82      	ldr	r3, [pc, #520]	; (8000958 <CPUCE+0x738>)
 8000750:	0021      	movs	r1, r4
 8000752:	2001      	movs	r0, #1
 8000754:	f004 f9fe 	bl	8004b54 <CPU+0x14c0>
 8000758:	4b85      	ldr	r3, [pc, #532]	; (8000970 <CPUCE+0x750>)
 800075a:	f004 f9fb 	bl	8004b54 <CPU+0x14c0>
 800075e:	0021      	movs	r1, r4
 8000760:	0002      	movs	r2, r0
 8000762:	4b7f      	ldr	r3, [pc, #508]	; (8000960 <CPUCE+0x740>)
 8000764:	2001      	movs	r0, #1
 8000766:	f004 f9f5 	bl	8004b54 <CPU+0x14c0>
 800076a:	2010      	movs	r0, #16
 800076c:	e573      	b.n	8000256 <CPUCE+0x36>
 800076e:	f004 f9f3 	bl	8004b58 <CPU+0x14c4>
 8000772:	69a4      	ldr	r4, [r4, #24]
 8000774:	4304      	orrs	r4, r0
 8000776:	0021      	movs	r1, r4
 8000778:	4b77      	ldr	r3, [pc, #476]	; (8000958 <CPUCE+0x738>)
 800077a:	2001      	movs	r0, #1
 800077c:	f004 f9ea 	bl	8004b54 <CPU+0x14c0>
 8000780:	4b7b      	ldr	r3, [pc, #492]	; (8000970 <CPUCE+0x750>)
 8000782:	f004 f9e7 	bl	8004b54 <CPU+0x14c0>
 8000786:	0021      	movs	r1, r4
 8000788:	0002      	movs	r2, r0
 800078a:	4b75      	ldr	r3, [pc, #468]	; (8000960 <CPUCE+0x740>)
 800078c:	2001      	movs	r0, #1
 800078e:	f004 f9e1 	bl	8004b54 <CPU+0x14c0>
 8000792:	2014      	movs	r0, #20
 8000794:	e55f      	b.n	8000256 <CPUCE+0x36>
 8000796:	78a0      	ldrb	r0, [r4, #2]
 8000798:	4b75      	ldr	r3, [pc, #468]	; (8000970 <CPUCE+0x750>)
 800079a:	f004 f9db 	bl	8004b54 <CPU+0x14c0>
 800079e:	70a0      	strb	r0, [r4, #2]
 80007a0:	200c      	movs	r0, #12
 80007a2:	e558      	b.n	8000256 <CPUCE+0x36>
 80007a4:	78e0      	ldrb	r0, [r4, #3]
 80007a6:	4b72      	ldr	r3, [pc, #456]	; (8000970 <CPUCE+0x750>)
 80007a8:	f004 f9d4 	bl	8004b54 <CPU+0x14c0>
 80007ac:	70e0      	strb	r0, [r4, #3]
 80007ae:	200c      	movs	r0, #12
 80007b0:	e551      	b.n	8000256 <CPUCE+0x36>
 80007b2:	6864      	ldr	r4, [r4, #4]
 80007b4:	4b68      	ldr	r3, [pc, #416]	; (8000958 <CPUCE+0x738>)
 80007b6:	0021      	movs	r1, r4
 80007b8:	2001      	movs	r0, #1
 80007ba:	f004 f9cb 	bl	8004b54 <CPU+0x14c0>
 80007be:	4b6d      	ldr	r3, [pc, #436]	; (8000974 <CPUCE+0x754>)
 80007c0:	f004 f9c8 	bl	8004b54 <CPU+0x14c0>
 80007c4:	0021      	movs	r1, r4
 80007c6:	0002      	movs	r2, r0
 80007c8:	4b65      	ldr	r3, [pc, #404]	; (8000960 <CPUCE+0x740>)
 80007ca:	2001      	movs	r0, #1
 80007cc:	f004 f9c2 	bl	8004b54 <CPU+0x14c0>
 80007d0:	2010      	movs	r0, #16
 80007d2:	e540      	b.n	8000256 <CPUCE+0x36>
 80007d4:	f004 f9c0 	bl	8004b58 <CPU+0x14c4>
 80007d8:	69a4      	ldr	r4, [r4, #24]
 80007da:	4304      	orrs	r4, r0
 80007dc:	0021      	movs	r1, r4
 80007de:	4b5e      	ldr	r3, [pc, #376]	; (8000958 <CPUCE+0x738>)
 80007e0:	2001      	movs	r0, #1
 80007e2:	f004 f9b7 	bl	8004b54 <CPU+0x14c0>
 80007e6:	4b63      	ldr	r3, [pc, #396]	; (8000974 <CPUCE+0x754>)
 80007e8:	f004 f9b4 	bl	8004b54 <CPU+0x14c0>
 80007ec:	0021      	movs	r1, r4
 80007ee:	0002      	movs	r2, r0
 80007f0:	4b5b      	ldr	r3, [pc, #364]	; (8000960 <CPUCE+0x740>)
 80007f2:	2001      	movs	r0, #1
 80007f4:	f004 f9ae 	bl	8004b54 <CPU+0x14c0>
 80007f8:	2014      	movs	r0, #20
 80007fa:	e52c      	b.n	8000256 <CPUCE+0x36>
 80007fc:	78a0      	ldrb	r0, [r4, #2]
 80007fe:	4b5d      	ldr	r3, [pc, #372]	; (8000974 <CPUCE+0x754>)
 8000800:	f004 f9a8 	bl	8004b54 <CPU+0x14c0>
 8000804:	70a0      	strb	r0, [r4, #2]
 8000806:	200c      	movs	r0, #12
 8000808:	e525      	b.n	8000256 <CPUCE+0x36>
 800080a:	78e0      	ldrb	r0, [r4, #3]
 800080c:	4b59      	ldr	r3, [pc, #356]	; (8000974 <CPUCE+0x754>)
 800080e:	f004 f9a1 	bl	8004b54 <CPU+0x14c0>
 8000812:	70e0      	strb	r0, [r4, #3]
 8000814:	200c      	movs	r0, #12
 8000816:	e51e      	b.n	8000256 <CPUCE+0x36>
 8000818:	6864      	ldr	r4, [r4, #4]
 800081a:	4b4f      	ldr	r3, [pc, #316]	; (8000958 <CPUCE+0x738>)
 800081c:	0021      	movs	r1, r4
 800081e:	2001      	movs	r0, #1
 8000820:	f004 f998 	bl	8004b54 <CPU+0x14c0>
 8000824:	4b54      	ldr	r3, [pc, #336]	; (8000978 <CPUCE+0x758>)
 8000826:	f004 f995 	bl	8004b54 <CPU+0x14c0>
 800082a:	0021      	movs	r1, r4
 800082c:	0002      	movs	r2, r0
 800082e:	4b4c      	ldr	r3, [pc, #304]	; (8000960 <CPUCE+0x740>)
 8000830:	2001      	movs	r0, #1
 8000832:	f004 f98f 	bl	8004b54 <CPU+0x14c0>
 8000836:	2010      	movs	r0, #16
 8000838:	e50d      	b.n	8000256 <CPUCE+0x36>
 800083a:	f004 f98d 	bl	8004b58 <CPU+0x14c4>
 800083e:	69a4      	ldr	r4, [r4, #24]
 8000840:	4304      	orrs	r4, r0
 8000842:	0021      	movs	r1, r4
 8000844:	4b44      	ldr	r3, [pc, #272]	; (8000958 <CPUCE+0x738>)
 8000846:	2001      	movs	r0, #1
 8000848:	f004 f984 	bl	8004b54 <CPU+0x14c0>
 800084c:	4b4a      	ldr	r3, [pc, #296]	; (8000978 <CPUCE+0x758>)
 800084e:	f004 f981 	bl	8004b54 <CPU+0x14c0>
 8000852:	0021      	movs	r1, r4
 8000854:	0002      	movs	r2, r0
 8000856:	4b42      	ldr	r3, [pc, #264]	; (8000960 <CPUCE+0x740>)
 8000858:	2001      	movs	r0, #1
 800085a:	f004 f97b 	bl	8004b54 <CPU+0x14c0>
 800085e:	2014      	movs	r0, #20
 8000860:	e4f9      	b.n	8000256 <CPUCE+0x36>
 8000862:	78a0      	ldrb	r0, [r4, #2]
 8000864:	4b44      	ldr	r3, [pc, #272]	; (8000978 <CPUCE+0x758>)
 8000866:	f004 f975 	bl	8004b54 <CPU+0x14c0>
 800086a:	70a0      	strb	r0, [r4, #2]
 800086c:	200c      	movs	r0, #12
 800086e:	e4f2      	b.n	8000256 <CPUCE+0x36>
 8000870:	78e0      	ldrb	r0, [r4, #3]
 8000872:	4b41      	ldr	r3, [pc, #260]	; (8000978 <CPUCE+0x758>)
 8000874:	f004 f96e 	bl	8004b54 <CPU+0x14c0>
 8000878:	70e0      	strb	r0, [r4, #3]
 800087a:	200c      	movs	r0, #12
 800087c:	e4eb      	b.n	8000256 <CPUCE+0x36>
 800087e:	6864      	ldr	r4, [r4, #4]
 8000880:	4b35      	ldr	r3, [pc, #212]	; (8000958 <CPUCE+0x738>)
 8000882:	0021      	movs	r1, r4
 8000884:	2001      	movs	r0, #1
 8000886:	f004 f965 	bl	8004b54 <CPU+0x14c0>
 800088a:	4b3c      	ldr	r3, [pc, #240]	; (800097c <CPUCE+0x75c>)
 800088c:	f004 f962 	bl	8004b54 <CPU+0x14c0>
 8000890:	0021      	movs	r1, r4
 8000892:	0002      	movs	r2, r0
 8000894:	4b32      	ldr	r3, [pc, #200]	; (8000960 <CPUCE+0x740>)
 8000896:	2001      	movs	r0, #1
 8000898:	f004 f95c 	bl	8004b54 <CPU+0x14c0>
 800089c:	2010      	movs	r0, #16
 800089e:	e4da      	b.n	8000256 <CPUCE+0x36>
 80008a0:	f004 f95a 	bl	8004b58 <CPU+0x14c4>
 80008a4:	69a4      	ldr	r4, [r4, #24]
 80008a6:	4304      	orrs	r4, r0
 80008a8:	0021      	movs	r1, r4
 80008aa:	4b2b      	ldr	r3, [pc, #172]	; (8000958 <CPUCE+0x738>)
 80008ac:	2001      	movs	r0, #1
 80008ae:	f004 f951 	bl	8004b54 <CPU+0x14c0>
 80008b2:	4b32      	ldr	r3, [pc, #200]	; (800097c <CPUCE+0x75c>)
 80008b4:	f004 f94e 	bl	8004b54 <CPU+0x14c0>
 80008b8:	0021      	movs	r1, r4
 80008ba:	0002      	movs	r2, r0
 80008bc:	4b28      	ldr	r3, [pc, #160]	; (8000960 <CPUCE+0x740>)
 80008be:	2001      	movs	r0, #1
 80008c0:	f004 f948 	bl	8004b54 <CPU+0x14c0>
 80008c4:	2014      	movs	r0, #20
 80008c6:	e4c6      	b.n	8000256 <CPUCE+0x36>
 80008c8:	78a0      	ldrb	r0, [r4, #2]
 80008ca:	4b2c      	ldr	r3, [pc, #176]	; (800097c <CPUCE+0x75c>)
 80008cc:	f004 f942 	bl	8004b54 <CPU+0x14c0>
 80008d0:	70a0      	strb	r0, [r4, #2]
 80008d2:	200c      	movs	r0, #12
 80008d4:	e4bf      	b.n	8000256 <CPUCE+0x36>
 80008d6:	f004 f93f 	bl	8004b58 <CPU+0x14c4>
 80008da:	0600      	lsls	r0, r0, #24
 80008dc:	4b28      	ldr	r3, [pc, #160]	; (8000980 <CPUCE+0x760>)
 80008de:	1600      	asrs	r0, r0, #24
 80008e0:	8965      	ldrh	r5, [r4, #10]
 80008e2:	f004 f937 	bl	8004b54 <CPU+0x14c0>
 80008e6:	7a63      	ldrb	r3, [r4, #9]
 80008e8:	1829      	adds	r1, r5, r0
 80008ea:	0409      	lsls	r1, r1, #16
 80008ec:	041b      	lsls	r3, r3, #16
 80008ee:	0c09      	lsrs	r1, r1, #16
 80008f0:	4319      	orrs	r1, r3
 80008f2:	2001      	movs	r0, #1
 80008f4:	4b18      	ldr	r3, [pc, #96]	; (8000958 <CPUCE+0x738>)
 80008f6:	6866      	ldr	r6, [r4, #4]
 80008f8:	f004 f92c 	bl	8004b54 <CPU+0x14c0>
 80008fc:	0031      	movs	r1, r6
 80008fe:	0002      	movs	r2, r0
 8000900:	4b17      	ldr	r3, [pc, #92]	; (8000960 <CPUCE+0x740>)
 8000902:	2001      	movs	r0, #1
 8000904:	f004 f926 	bl	8004b54 <CPU+0x14c0>
 8000908:	2014      	movs	r0, #20
 800090a:	e4a4      	b.n	8000256 <CPUCE+0x36>
 800090c:	2007      	movs	r0, #7
 800090e:	4b1c      	ldr	r3, [pc, #112]	; (8000980 <CPUCE+0x760>)
 8000910:	5620      	ldrsb	r0, [r4, r0]
 8000912:	89e5      	ldrh	r5, [r4, #14]
 8000914:	f004 f91e 	bl	8004b54 <CPU+0x14c0>
 8000918:	7b63      	ldrb	r3, [r4, #13]
 800091a:	1829      	adds	r1, r5, r0
 800091c:	0409      	lsls	r1, r1, #16
 800091e:	041b      	lsls	r3, r3, #16
 8000920:	0c09      	lsrs	r1, r1, #16
 8000922:	4319      	orrs	r1, r3
 8000924:	2001      	movs	r0, #1
 8000926:	79a2      	ldrb	r2, [r4, #6]
 8000928:	4b0d      	ldr	r3, [pc, #52]	; (8000960 <CPUCE+0x740>)
 800092a:	f004 f913 	bl	8004b54 <CPU+0x14c0>
 800092e:	2010      	movs	r0, #16
 8000930:	e491      	b.n	8000256 <CPUCE+0x36>
 8000932:	2007      	movs	r0, #7
 8000934:	4b12      	ldr	r3, [pc, #72]	; (8000980 <CPUCE+0x760>)
 8000936:	5620      	ldrsb	r0, [r4, r0]
 8000938:	8965      	ldrh	r5, [r4, #10]
 800093a:	f004 f90b 	bl	8004b54 <CPU+0x14c0>
 800093e:	7a63      	ldrb	r3, [r4, #9]
 8000940:	1829      	adds	r1, r5, r0
 8000942:	0409      	lsls	r1, r1, #16
 8000944:	041b      	lsls	r3, r3, #16
 8000946:	0c09      	lsrs	r1, r1, #16
 8000948:	4319      	orrs	r1, r3
 800094a:	2001      	movs	r0, #1
 800094c:	79a2      	ldrb	r2, [r4, #6]
 800094e:	4b04      	ldr	r3, [pc, #16]	; (8000960 <CPUCE+0x740>)
 8000950:	f004 f900 	bl	8004b54 <CPU+0x14c0>
 8000954:	2010      	movs	r0, #16
 8000956:	e47e      	b.n	8000256 <CPUCE+0x36>
 8000958:	08004b5d 	stmdaeq	r0, {r0, r2, r3, r4, r6, r8, r9, fp, lr}
 800095c:	08005901 	stmdaeq	r0, {r0, r8, fp, ip, lr}
 8000960:	08004be9 	stmdaeq	r0, {r0, r3, r5, r6, r7, r8, r9, fp, lr}
 8000964:	080058c5 	stmdaeq	r0, {r0, r2, r6, r7, fp, ip, lr}
 8000968:	0800588d 	stmdaeq	r0, {r0, r2, r3, r7, fp, ip, lr}
 800096c:	0800584d 	stmdaeq	r0, {r0, r2, r3, r6, fp, ip, lr}
 8000970:	08005829 	stmdaeq	r0, {r0, r3, r5, fp, ip, lr}
 8000974:	080057e5 	stmdaeq	r0, {r0, r2, r5, r6, r7, r8, r9, sl, ip, lr}
 8000978:	080057b5 	stmdaeq	r0, {r0, r2, r4, r5, r7, r8, r9, sl, ip, lr}
 800097c:	08005765 	stmdaeq	r0, {r0, r2, r5, r6, r8, r9, sl, ip, lr}
 8000980:	08005511 	stmdaeq	r0, {r0, r4, r8, sl, ip, lr}
 8000984:	f004 f8e8 	bl	8004b58 <CPU+0x14c4>
 8000988:	0600      	lsls	r0, r0, #24
 800098a:	4bf2      	ldr	r3, [pc, #968]	; (8000d54 <CPUCE+0xb34>)
 800098c:	1600      	asrs	r0, r0, #24
 800098e:	89e5      	ldrh	r5, [r4, #14]
 8000990:	f004 f8e0 	bl	8004b54 <CPU+0x14c0>
 8000994:	7b63      	ldrb	r3, [r4, #13]
 8000996:	1829      	adds	r1, r5, r0
 8000998:	0409      	lsls	r1, r1, #16
 800099a:	041b      	lsls	r3, r3, #16
 800099c:	0c09      	lsrs	r1, r1, #16
 800099e:	4319      	orrs	r1, r3
 80009a0:	2001      	movs	r0, #1
 80009a2:	79a2      	ldrb	r2, [r4, #6]
 80009a4:	4bec      	ldr	r3, [pc, #944]	; (8000d58 <CPUCE+0xb38>)
 80009a6:	f004 f8d5 	bl	8004b54 <CPU+0x14c0>
 80009aa:	2010      	movs	r0, #16
 80009ac:	e453      	b.n	8000256 <CPUCE+0x36>
 80009ae:	f004 f8d3 	bl	8004b58 <CPU+0x14c4>
 80009b2:	0600      	lsls	r0, r0, #24
 80009b4:	4be7      	ldr	r3, [pc, #924]	; (8000d54 <CPUCE+0xb34>)
 80009b6:	1600      	asrs	r0, r0, #24
 80009b8:	8965      	ldrh	r5, [r4, #10]
 80009ba:	f004 f8cb 	bl	8004b54 <CPU+0x14c0>
 80009be:	7a63      	ldrb	r3, [r4, #9]
 80009c0:	1829      	adds	r1, r5, r0
 80009c2:	0409      	lsls	r1, r1, #16
 80009c4:	041b      	lsls	r3, r3, #16
 80009c6:	0c09      	lsrs	r1, r1, #16
 80009c8:	4319      	orrs	r1, r3
 80009ca:	2001      	movs	r0, #1
 80009cc:	79a2      	ldrb	r2, [r4, #6]
 80009ce:	4be2      	ldr	r3, [pc, #904]	; (8000d58 <CPUCE+0xb38>)
 80009d0:	f004 f8c0 	bl	8004b54 <CPU+0x14c0>
 80009d4:	2010      	movs	r0, #16
 80009d6:	f7ff fc3e 	bl	8000256 <CPUCE+0x36>
 80009da:	2007      	movs	r0, #7
 80009dc:	4bdd      	ldr	r3, [pc, #884]	; (8000d54 <CPUCE+0xb34>)
 80009de:	5620      	ldrsb	r0, [r4, r0]
 80009e0:	89e5      	ldrh	r5, [r4, #14]
 80009e2:	f004 f8b7 	bl	8004b54 <CPU+0x14c0>
 80009e6:	7b63      	ldrb	r3, [r4, #13]
 80009e8:	1829      	adds	r1, r5, r0
 80009ea:	0409      	lsls	r1, r1, #16
 80009ec:	041b      	lsls	r3, r3, #16
 80009ee:	0c09      	lsrs	r1, r1, #16
 80009f0:	4319      	orrs	r1, r3
 80009f2:	2001      	movs	r0, #1
 80009f4:	4bd9      	ldr	r3, [pc, #868]	; (8000d5c <CPUCE+0xb3c>)
 80009f6:	f004 f8ad 	bl	8004b54 <CPU+0x14c0>
 80009fa:	71a0      	strb	r0, [r4, #6]
 80009fc:	2010      	movs	r0, #16
 80009fe:	f7ff fc2a 	bl	8000256 <CPUCE+0x36>
 8000a02:	2007      	movs	r0, #7
 8000a04:	4bd3      	ldr	r3, [pc, #844]	; (8000d54 <CPUCE+0xb34>)
 8000a06:	5620      	ldrsb	r0, [r4, r0]
 8000a08:	8965      	ldrh	r5, [r4, #10]
 8000a0a:	f004 f8a3 	bl	8004b54 <CPU+0x14c0>
 8000a0e:	7a63      	ldrb	r3, [r4, #9]
 8000a10:	1829      	adds	r1, r5, r0
 8000a12:	0409      	lsls	r1, r1, #16
 8000a14:	041b      	lsls	r3, r3, #16
 8000a16:	0c09      	lsrs	r1, r1, #16
 8000a18:	4319      	orrs	r1, r3
 8000a1a:	2001      	movs	r0, #1
 8000a1c:	4bcf      	ldr	r3, [pc, #828]	; (8000d5c <CPUCE+0xb3c>)
 8000a1e:	f004 f899 	bl	8004b54 <CPU+0x14c0>
 8000a22:	71a0      	strb	r0, [r4, #6]
 8000a24:	2010      	movs	r0, #16
 8000a26:	f7ff fc16 	bl	8000256 <CPUCE+0x36>
 8000a2a:	f004 f895 	bl	8004b58 <CPU+0x14c4>
 8000a2e:	7fe3      	ldrb	r3, [r4, #31]
 8000a30:	079b      	lsls	r3, r3, #30
 8000a32:	d401      	bmi.n	8000a38 <CPUCE+0x818>
 8000a34:	f7ff fc29 	bl	800028a <CPUCE+0x6a>
 8000a38:	0600      	lsls	r0, r0, #24
 8000a3a:	4bc6      	ldr	r3, [pc, #792]	; (8000d54 <CPUCE+0xb34>)
 8000a3c:	1600      	asrs	r0, r0, #24
 8000a3e:	f004 f889 	bl	8004b54 <CPU+0x14c0>
 8000a42:	4bc7      	ldr	r3, [pc, #796]	; (8000d60 <CPUCE+0xb40>)
 8000a44:	f004 f886 	bl	8004b54 <CPU+0x14c0>
 8000a48:	200c      	movs	r0, #12
 8000a4a:	f7ff fc04 	bl	8000256 <CPUCE+0x36>
 8000a4e:	2003      	movs	r0, #3
 8000a50:	4bc0      	ldr	r3, [pc, #768]	; (8000d54 <CPUCE+0xb34>)
 8000a52:	5620      	ldrsb	r0, [r4, r0]
 8000a54:	f004 f87e 	bl	8004b54 <CPU+0x14c0>
 8000a58:	8060      	strh	r0, [r4, #2]
 8000a5a:	200c      	movs	r0, #12
 8000a5c:	f7ff fbfb 	bl	8000256 <CPUCE+0x36>
 8000a60:	78a0      	ldrb	r0, [r4, #2]
 8000a62:	4bc0      	ldr	r3, [pc, #768]	; (8000d64 <CPUCE+0xb44>)
 8000a64:	f004 f876 	bl	8004b54 <CPU+0x14c0>
 8000a68:	70a0      	strb	r0, [r4, #2]
 8000a6a:	200c      	movs	r0, #12
 8000a6c:	f7ff fbf3 	bl	8000256 <CPUCE+0x36>
 8000a70:	78e0      	ldrb	r0, [r4, #3]
 8000a72:	4bbc      	ldr	r3, [pc, #752]	; (8000d64 <CPUCE+0xb44>)
 8000a74:	f004 f86e 	bl	8004b54 <CPU+0x14c0>
 8000a78:	70e0      	strb	r0, [r4, #3]
 8000a7a:	200c      	movs	r0, #12
 8000a7c:	f7ff fbeb 	bl	8000256 <CPUCE+0x36>
 8000a80:	6864      	ldr	r4, [r4, #4]
 8000a82:	4bb6      	ldr	r3, [pc, #728]	; (8000d5c <CPUCE+0xb3c>)
 8000a84:	0021      	movs	r1, r4
 8000a86:	2001      	movs	r0, #1
 8000a88:	f004 f864 	bl	8004b54 <CPU+0x14c0>
 8000a8c:	4bb6      	ldr	r3, [pc, #728]	; (8000d68 <CPUCE+0xb48>)
 8000a8e:	f004 f861 	bl	8004b54 <CPU+0x14c0>
 8000a92:	0021      	movs	r1, r4
 8000a94:	0002      	movs	r2, r0
 8000a96:	4bb0      	ldr	r3, [pc, #704]	; (8000d58 <CPUCE+0xb38>)
 8000a98:	2001      	movs	r0, #1
 8000a9a:	f004 f85b 	bl	8004b54 <CPU+0x14c0>
 8000a9e:	2010      	movs	r0, #16
 8000aa0:	f7ff fbd9 	bl	8000256 <CPUCE+0x36>
 8000aa4:	f004 f858 	bl	8004b58 <CPU+0x14c4>
 8000aa8:	69a4      	ldr	r4, [r4, #24]
 8000aaa:	4304      	orrs	r4, r0
 8000aac:	0021      	movs	r1, r4
 8000aae:	4bab      	ldr	r3, [pc, #684]	; (8000d5c <CPUCE+0xb3c>)
 8000ab0:	2001      	movs	r0, #1
 8000ab2:	f004 f84f 	bl	8004b54 <CPU+0x14c0>
 8000ab6:	4bac      	ldr	r3, [pc, #688]	; (8000d68 <CPUCE+0xb48>)
 8000ab8:	f004 f84c 	bl	8004b54 <CPU+0x14c0>
 8000abc:	0021      	movs	r1, r4
 8000abe:	0002      	movs	r2, r0
 8000ac0:	4ba5      	ldr	r3, [pc, #660]	; (8000d58 <CPUCE+0xb38>)
 8000ac2:	2001      	movs	r0, #1
 8000ac4:	f004 f846 	bl	8004b54 <CPU+0x14c0>
 8000ac8:	2014      	movs	r0, #20
 8000aca:	f7ff fbc4 	bl	8000256 <CPUCE+0x36>
 8000ace:	6864      	ldr	r4, [r4, #4]
 8000ad0:	4ba2      	ldr	r3, [pc, #648]	; (8000d5c <CPUCE+0xb3c>)
 8000ad2:	0021      	movs	r1, r4
 8000ad4:	2001      	movs	r0, #1
 8000ad6:	f004 f83d 	bl	8004b54 <CPU+0x14c0>
 8000ada:	4ba2      	ldr	r3, [pc, #648]	; (8000d64 <CPUCE+0xb44>)
 8000adc:	f004 f83a 	bl	8004b54 <CPU+0x14c0>
 8000ae0:	0021      	movs	r1, r4
 8000ae2:	0002      	movs	r2, r0
 8000ae4:	4b9c      	ldr	r3, [pc, #624]	; (8000d58 <CPUCE+0xb38>)
 8000ae6:	2001      	movs	r0, #1
 8000ae8:	f004 f834 	bl	8004b54 <CPU+0x14c0>
 8000aec:	2010      	movs	r0, #16
 8000aee:	f7ff fbb2 	bl	8000256 <CPUCE+0x36>
 8000af2:	f004 f831 	bl	8004b58 <CPU+0x14c4>
 8000af6:	69a4      	ldr	r4, [r4, #24]
 8000af8:	4304      	orrs	r4, r0
 8000afa:	0021      	movs	r1, r4
 8000afc:	4b97      	ldr	r3, [pc, #604]	; (8000d5c <CPUCE+0xb3c>)
 8000afe:	2001      	movs	r0, #1
 8000b00:	f004 f828 	bl	8004b54 <CPU+0x14c0>
 8000b04:	4b97      	ldr	r3, [pc, #604]	; (8000d64 <CPUCE+0xb44>)
 8000b06:	f004 f825 	bl	8004b54 <CPU+0x14c0>
 8000b0a:	0021      	movs	r1, r4
 8000b0c:	0002      	movs	r2, r0
 8000b0e:	4b92      	ldr	r3, [pc, #584]	; (8000d58 <CPUCE+0xb38>)
 8000b10:	2001      	movs	r0, #1
 8000b12:	f004 f81f 	bl	8004b54 <CPU+0x14c0>
 8000b16:	2014      	movs	r0, #20
 8000b18:	f7ff fb9d 	bl	8000256 <CPUCE+0x36>
 8000b1c:	78a0      	ldrb	r0, [r4, #2]
 8000b1e:	4b92      	ldr	r3, [pc, #584]	; (8000d68 <CPUCE+0xb48>)
 8000b20:	f004 f818 	bl	8004b54 <CPU+0x14c0>
 8000b24:	70a0      	strb	r0, [r4, #2]
 8000b26:	200c      	movs	r0, #12
 8000b28:	f7ff fb95 	bl	8000256 <CPUCE+0x36>
 8000b2c:	7ea3      	ldrb	r3, [r4, #26]
 8000b2e:	2008      	movs	r0, #8
 8000b30:	70e3      	strb	r3, [r4, #3]
 8000b32:	f7ff fb90 	bl	8000256 <CPUCE+0x36>
 8000b36:	f004 f80f 	bl	8004b58 <CPU+0x14c4>
 8000b3a:	4b8c      	ldr	r3, [pc, #560]	; (8000d6c <CPUCE+0xb4c>)
 8000b3c:	0001      	movs	r1, r0
 8000b3e:	7ea0      	ldrb	r0, [r4, #26]
 8000b40:	f004 f808 	bl	8004b54 <CPU+0x14c0>
 8000b44:	200c      	movs	r0, #12
 8000b46:	f7ff fb86 	bl	8000256 <CPUCE+0x36>
 8000b4a:	f004 f805 	bl	8004b58 <CPU+0x14c4>
 8000b4e:	4b87      	ldr	r3, [pc, #540]	; (8000d6c <CPUCE+0xb4c>)
 8000b50:	0001      	movs	r1, r0
 8000b52:	79a0      	ldrb	r0, [r4, #6]
 8000b54:	f003 fffe 	bl	8004b54 <CPU+0x14c0>
 8000b58:	200c      	movs	r0, #12
 8000b5a:	f7ff fb7c 	bl	8000256 <CPUCE+0x36>
 8000b5e:	f003 fffb 	bl	8004b58 <CPU+0x14c4>
 8000b62:	4b82      	ldr	r3, [pc, #520]	; (8000d6c <CPUCE+0xb4c>)
 8000b64:	0001      	movs	r1, r0
 8000b66:	79e0      	ldrb	r0, [r4, #7]
 8000b68:	f003 fff4 	bl	8004b54 <CPU+0x14c0>
 8000b6c:	200c      	movs	r0, #12
 8000b6e:	f7ff fb72 	bl	8000256 <CPUCE+0x36>
 8000b72:	f003 fff1 	bl	8004b58 <CPU+0x14c4>
 8000b76:	4b7d      	ldr	r3, [pc, #500]	; (8000d6c <CPUCE+0xb4c>)
 8000b78:	0001      	movs	r1, r0
 8000b7a:	78a0      	ldrb	r0, [r4, #2]
 8000b7c:	f003 ffea 	bl	8004b54 <CPU+0x14c0>
 8000b80:	200c      	movs	r0, #12
 8000b82:	f7ff fb68 	bl	8000256 <CPUCE+0x36>
 8000b86:	7d63      	ldrb	r3, [r4, #21]
 8000b88:	200c      	movs	r0, #12
 8000b8a:	73a3      	strb	r3, [r4, #14]
 8000b8c:	f7ff fb63 	bl	8000256 <CPUCE+0x36>
 8000b90:	f003 ffe2 	bl	8004b58 <CPU+0x14c4>
 8000b94:	4b76      	ldr	r3, [pc, #472]	; (8000d70 <CPUCE+0xb50>)
 8000b96:	0001      	movs	r1, r0
 8000b98:	79a0      	ldrb	r0, [r4, #6]
 8000b9a:	f003 ffdb 	bl	8004b54 <CPU+0x14c0>
 8000b9e:	71a0      	strb	r0, [r4, #6]
 8000ba0:	200c      	movs	r0, #12
 8000ba2:	f7ff fb58 	bl	8000256 <CPUCE+0x36>
 8000ba6:	f003 ffd7 	bl	8004b58 <CPU+0x14c4>
 8000baa:	4b71      	ldr	r3, [pc, #452]	; (8000d70 <CPUCE+0xb50>)
 8000bac:	0001      	movs	r1, r0
 8000bae:	79e0      	ldrb	r0, [r4, #7]
 8000bb0:	f003 ffd0 	bl	8004b54 <CPU+0x14c0>
 8000bb4:	71e0      	strb	r0, [r4, #7]
 8000bb6:	200c      	movs	r0, #12
 8000bb8:	f7ff fb4d 	bl	8000256 <CPUCE+0x36>
 8000bbc:	f003 ffcc 	bl	8004b58 <CPU+0x14c4>
 8000bc0:	4b6b      	ldr	r3, [pc, #428]	; (8000d70 <CPUCE+0xb50>)
 8000bc2:	0001      	movs	r1, r0
 8000bc4:	78a0      	ldrb	r0, [r4, #2]
 8000bc6:	f003 ffc5 	bl	8004b54 <CPU+0x14c0>
 8000bca:	70a0      	strb	r0, [r4, #2]
 8000bcc:	200c      	movs	r0, #12
 8000bce:	f7ff fb42 	bl	8000256 <CPUCE+0x36>
 8000bd2:	7d63      	ldrb	r3, [r4, #21]
 8000bd4:	200c      	movs	r0, #12
 8000bd6:	72a3      	strb	r3, [r4, #10]
 8000bd8:	f7ff fb3d 	bl	8000256 <CPUCE+0x36>
 8000bdc:	f003 ffbc 	bl	8004b58 <CPU+0x14c4>
 8000be0:	4b64      	ldr	r3, [pc, #400]	; (8000d74 <CPUCE+0xb54>)
 8000be2:	0001      	movs	r1, r0
 8000be4:	79a0      	ldrb	r0, [r4, #6]
 8000be6:	f003 ffb5 	bl	8004b54 <CPU+0x14c0>
 8000bea:	71a0      	strb	r0, [r4, #6]
 8000bec:	200c      	movs	r0, #12
 8000bee:	f7ff fb32 	bl	8000256 <CPUCE+0x36>
 8000bf2:	f003 ffb1 	bl	8004b58 <CPU+0x14c4>
 8000bf6:	4b5f      	ldr	r3, [pc, #380]	; (8000d74 <CPUCE+0xb54>)
 8000bf8:	0001      	movs	r1, r0
 8000bfa:	79e0      	ldrb	r0, [r4, #7]
 8000bfc:	f003 ffaa 	bl	8004b54 <CPU+0x14c0>
 8000c00:	71e0      	strb	r0, [r4, #7]
 8000c02:	200c      	movs	r0, #12
 8000c04:	f7ff fb27 	bl	8000256 <CPUCE+0x36>
 8000c08:	f003 ffa6 	bl	8004b58 <CPU+0x14c4>
 8000c0c:	4b59      	ldr	r3, [pc, #356]	; (8000d74 <CPUCE+0xb54>)
 8000c0e:	0001      	movs	r1, r0
 8000c10:	78a0      	ldrb	r0, [r4, #2]
 8000c12:	f003 ff9f 	bl	8004b54 <CPU+0x14c0>
 8000c16:	70a0      	strb	r0, [r4, #2]
 8000c18:	200c      	movs	r0, #12
 8000c1a:	f7ff fb1c 	bl	8000256 <CPUCE+0x36>
 8000c1e:	7d63      	ldrb	r3, [r4, #21]
 8000c20:	200c      	movs	r0, #12
 8000c22:	71a3      	strb	r3, [r4, #6]
 8000c24:	f7ff fb17 	bl	8000256 <CPUCE+0x36>
 8000c28:	f003 ff96 	bl	8004b58 <CPU+0x14c4>
 8000c2c:	4b52      	ldr	r3, [pc, #328]	; (8000d78 <CPUCE+0xb58>)
 8000c2e:	0001      	movs	r1, r0
 8000c30:	79a0      	ldrb	r0, [r4, #6]
 8000c32:	f003 ff8f 	bl	8004b54 <CPU+0x14c0>
 8000c36:	71a0      	strb	r0, [r4, #6]
 8000c38:	200c      	movs	r0, #12
 8000c3a:	f7ff fb0c 	bl	8000256 <CPUCE+0x36>
 8000c3e:	f003 ff8b 	bl	8004b58 <CPU+0x14c4>
 8000c42:	4b4d      	ldr	r3, [pc, #308]	; (8000d78 <CPUCE+0xb58>)
 8000c44:	0001      	movs	r1, r0
 8000c46:	79e0      	ldrb	r0, [r4, #7]
 8000c48:	f003 ff84 	bl	8004b54 <CPU+0x14c0>
 8000c4c:	71e0      	strb	r0, [r4, #7]
 8000c4e:	200c      	movs	r0, #12
 8000c50:	f7ff fb01 	bl	8000256 <CPUCE+0x36>
 8000c54:	2014      	movs	r0, #20
 8000c56:	f7ff fafe 	bl	8000256 <CPUCE+0x36>
 8000c5a:	8ae3      	ldrh	r3, [r4, #22]
 8000c5c:	3301      	adds	r3, #1
 8000c5e:	82e3      	strh	r3, [r4, #22]
 8000c60:	2010      	movs	r0, #16
 8000c62:	f7ff faf8 	bl	8000256 <CPUCE+0x36>
 8000c66:	f003 ff77 	bl	8004b58 <CPU+0x14c4>
 8000c6a:	0600      	lsls	r0, r0, #24
 8000c6c:	4b39      	ldr	r3, [pc, #228]	; (8000d54 <CPUCE+0xb34>)
 8000c6e:	1600      	asrs	r0, r0, #24
 8000c70:	8965      	ldrh	r5, [r4, #10]
 8000c72:	f003 ff6f 	bl	8004b54 <CPU+0x14c0>
 8000c76:	7a63      	ldrb	r3, [r4, #9]
 8000c78:	1829      	adds	r1, r5, r0
 8000c7a:	0409      	lsls	r1, r1, #16
 8000c7c:	041b      	lsls	r3, r3, #16
 8000c7e:	0c09      	lsrs	r1, r1, #16
 8000c80:	4319      	orrs	r1, r3
 8000c82:	2001      	movs	r0, #1
 8000c84:	4b35      	ldr	r3, [pc, #212]	; (8000d5c <CPUCE+0xb3c>)
 8000c86:	f003 ff65 	bl	8004b54 <CPU+0x14c0>
 8000c8a:	70e0      	strb	r0, [r4, #3]
 8000c8c:	2040      	movs	r0, #64	; 0x40
 8000c8e:	f7ff fae2 	bl	8000256 <CPUCE+0x36>
 8000c92:	f003 ff61 	bl	8004b58 <CPU+0x14c4>
 8000c96:	7fe3      	ldrb	r3, [r4, #31]
 8000c98:	071b      	lsls	r3, r3, #28
 8000c9a:	d401      	bmi.n	8000ca0 <CPUCE+0xa80>
 8000c9c:	f7ff faf5 	bl	800028a <CPUCE+0x6a>
 8000ca0:	0600      	lsls	r0, r0, #24
 8000ca2:	4b2c      	ldr	r3, [pc, #176]	; (8000d54 <CPUCE+0xb34>)
 8000ca4:	1600      	asrs	r0, r0, #24
 8000ca6:	f003 ff55 	bl	8004b54 <CPU+0x14c0>
 8000caa:	4b2d      	ldr	r3, [pc, #180]	; (8000d60 <CPUCE+0xb40>)
 8000cac:	f003 ff52 	bl	8004b54 <CPU+0x14c0>
 8000cb0:	200c      	movs	r0, #12
 8000cb2:	f7ff fad0 	bl	8000256 <CPUCE+0x36>
 8000cb6:	f003 ff4f 	bl	8004b58 <CPU+0x14c4>
 8000cba:	0600      	lsls	r0, r0, #24
 8000cbc:	4b25      	ldr	r3, [pc, #148]	; (8000d54 <CPUCE+0xb34>)
 8000cbe:	1600      	asrs	r0, r0, #24
 8000cc0:	8965      	ldrh	r5, [r4, #10]
 8000cc2:	f003 ff47 	bl	8004b54 <CPU+0x14c0>
 8000cc6:	7a63      	ldrb	r3, [r4, #9]
 8000cc8:	1829      	adds	r1, r5, r0
 8000cca:	0409      	lsls	r1, r1, #16
 8000ccc:	041b      	lsls	r3, r3, #16
 8000cce:	0c09      	lsrs	r1, r1, #16
 8000cd0:	4319      	orrs	r1, r3
 8000cd2:	2001      	movs	r0, #1
 8000cd4:	4b21      	ldr	r3, [pc, #132]	; (8000d5c <CPUCE+0xb3c>)
 8000cd6:	68e6      	ldr	r6, [r4, #12]
 8000cd8:	f003 ff3c 	bl	8004b54 <CPU+0x14c0>
 8000cdc:	0031      	movs	r1, r6
 8000cde:	0002      	movs	r2, r0
 8000ce0:	4b1d      	ldr	r3, [pc, #116]	; (8000d58 <CPUCE+0xb38>)
 8000ce2:	2001      	movs	r0, #1
 8000ce4:	f003 ff36 	bl	8004b54 <CPU+0x14c0>
 8000ce8:	2014      	movs	r0, #20
 8000cea:	f7ff fab4 	bl	8000256 <CPUCE+0x36>
 8000cee:	2007      	movs	r0, #7
 8000cf0:	4b18      	ldr	r3, [pc, #96]	; (8000d54 <CPUCE+0xb34>)
 8000cf2:	5620      	ldrsb	r0, [r4, r0]
 8000cf4:	89e5      	ldrh	r5, [r4, #14]
 8000cf6:	f003 ff2d 	bl	8004b54 <CPU+0x14c0>
 8000cfa:	7b63      	ldrb	r3, [r4, #13]
 8000cfc:	1829      	adds	r1, r5, r0
 8000cfe:	0409      	lsls	r1, r1, #16
 8000d00:	041b      	lsls	r3, r3, #16
 8000d02:	0c09      	lsrs	r1, r1, #16
 8000d04:	4319      	orrs	r1, r3
 8000d06:	2001      	movs	r0, #1
 8000d08:	4b14      	ldr	r3, [pc, #80]	; (8000d5c <CPUCE+0xb3c>)
 8000d0a:	f003 ff23 	bl	8004b54 <CPU+0x14c0>
 8000d0e:	71e0      	strb	r0, [r4, #7]
 8000d10:	2040      	movs	r0, #64	; 0x40
 8000d12:	f7ff faa0 	bl	8000256 <CPUCE+0x36>
 8000d16:	2007      	movs	r0, #7
 8000d18:	4b0e      	ldr	r3, [pc, #56]	; (8000d54 <CPUCE+0xb34>)
 8000d1a:	5620      	ldrsb	r0, [r4, r0]
 8000d1c:	8965      	ldrh	r5, [r4, #10]
 8000d1e:	f003 ff19 	bl	8004b54 <CPU+0x14c0>
 8000d22:	7a63      	ldrb	r3, [r4, #9]
 8000d24:	1829      	adds	r1, r5, r0
 8000d26:	0409      	lsls	r1, r1, #16
 8000d28:	041b      	lsls	r3, r3, #16
 8000d2a:	0c09      	lsrs	r1, r1, #16
 8000d2c:	4319      	orrs	r1, r3
 8000d2e:	2001      	movs	r0, #1
 8000d30:	4b0a      	ldr	r3, [pc, #40]	; (8000d5c <CPUCE+0xb3c>)
 8000d32:	f003 ff0f 	bl	8004b54 <CPU+0x14c0>
 8000d36:	70e0      	strb	r0, [r4, #3]
 8000d38:	2040      	movs	r0, #64	; 0x40
 8000d3a:	f7ff fa8c 	bl	8000256 <CPUCE+0x36>
 8000d3e:	7963      	ldrb	r3, [r4, #5]
 8000d40:	2008      	movs	r0, #8
 8000d42:	70e3      	strb	r3, [r4, #3]
 8000d44:	f7ff fa87 	bl	8000256 <CPUCE+0x36>
 8000d48:	7d63      	ldrb	r3, [r4, #21]
 8000d4a:	2008      	movs	r0, #8
 8000d4c:	70e3      	strb	r3, [r4, #3]
 8000d4e:	f7ff fa82 	bl	8000256 <CPUCE+0x36>
 8000d52:	46c0      	nop			; (mov r8, r8)
 8000d54:	08005511 	stmdaeq	r0, {r0, r4, r8, sl, ip, lr}
 8000d58:	08004be9 	stmdaeq	r0, {r0, r3, r5, r6, r7, r8, r9, fp, lr}
 8000d5c:	08004b5d 	stmdaeq	r0, {r0, r2, r3, r4, r6, r8, r9, fp, lr}
 8000d60:	080054f5 	stmdaeq	r0, {r0, r2, r4, r5, r6, r7, sl, ip, lr}
 8000d64:	08005961 	stmdaeq	r0, {r0, r5, r6, r8, fp, ip, lr}
 8000d68:	08005939 	stmdaeq	r0, {r0, r3, r4, r5, r8, fp, ip, lr}
 8000d6c:	08005125 	stmdaeq	r0, {r0, r2, r5, r8, ip, lr}
 8000d70:	080053b5 	stmdaeq	r0, {r0, r2, r4, r5, r7, r8, r9, ip, lr}
 8000d74:	08005365 	stmdaeq	r0, {r0, r2, r5, r6, r8, r9, ip, lr}
 8000d78:	0800538d 	stmdaeq	r0, {r0, r2, r3, r7, r8, r9, ip, lr}
 8000d7c:	f003 feec 	bl	8004b58 <CPU+0x14c4>
 8000d80:	7360      	strb	r0, [r4, #13]
 8000d82:	200c      	movs	r0, #12
 8000d84:	f7ff fa67 	bl	8000256 <CPUCE+0x36>
 8000d88:	f003 fee6 	bl	8004b58 <CPU+0x14c4>
 8000d8c:	7260      	strb	r0, [r4, #9]
 8000d8e:	200c      	movs	r0, #12
 8000d90:	f7ff fa61 	bl	8000256 <CPUCE+0x36>
 8000d94:	f003 fee0 	bl	8004b58 <CPU+0x14c4>
 8000d98:	7160      	strb	r0, [r4, #5]
 8000d9a:	7660      	strb	r0, [r4, #25]
 8000d9c:	200c      	movs	r0, #12
 8000d9e:	f7ff fa5a 	bl	8000256 <CPUCE+0x36>
 8000da2:	f003 fed9 	bl	8004b58 <CPU+0x14c4>
 8000da6:	4bf3      	ldr	r3, [pc, #972]	; (8001174 <CPUCE+0xf54>)
 8000da8:	f003 fed4 	bl	8004b54 <CPU+0x14c0>
 8000dac:	2010      	movs	r0, #16
 8000dae:	f7ff fa52 	bl	8000256 <CPUCE+0x36>
 8000db2:	2321      	movs	r3, #33	; 0x21
 8000db4:	78e0      	ldrb	r0, [r4, #3]
 8000db6:	77a0      	strb	r0, [r4, #30]
 8000db8:	5ce1      	ldrb	r1, [r4, r3]
 8000dba:	4bef      	ldr	r3, [pc, #956]	; (8001178 <CPUCE+0xf58>)
 8000dbc:	f003 feca 	bl	8004b54 <CPU+0x14c0>
 8000dc0:	2008      	movs	r0, #8
 8000dc2:	f7ff fa48 	bl	8000256 <CPUCE+0x36>
 8000dc6:	78e3      	ldrb	r3, [r4, #3]
 8000dc8:	2008      	movs	r0, #8
 8000dca:	76a3      	strb	r3, [r4, #26]
 8000dcc:	f7ff fa43 	bl	8000256 <CPUCE+0x36>
 8000dd0:	7fa3      	ldrb	r3, [r4, #30]
 8000dd2:	2008      	movs	r0, #8
 8000dd4:	70e3      	strb	r3, [r4, #3]
 8000dd6:	f7ff fa3e 	bl	8000256 <CPUCE+0x36>
 8000dda:	4be8      	ldr	r3, [pc, #928]	; (800117c <CPUCE+0xf5c>)
 8000ddc:	f003 feba 	bl	8004b54 <CPU+0x14c0>
 8000de0:	2034      	movs	r0, #52	; 0x34
 8000de2:	f7ff fa38 	bl	8000256 <CPUCE+0x36>
 8000de6:	2001      	movs	r0, #1
 8000de8:	49e5      	ldr	r1, [pc, #916]	; (8001180 <CPUCE+0xf60>)
 8000dea:	4be6      	ldr	r3, [pc, #920]	; (8001184 <CPUCE+0xf64>)
 8000dec:	f003 feb2 	bl	8004b54 <CPU+0x14c0>
 8000df0:	2040      	movs	r0, #64	; 0x40
 8000df2:	f7ff fa30 	bl	8000256 <CPUCE+0x36>
 8000df6:	200c      	movs	r0, #12
 8000df8:	f7ff fa2d 	bl	8000256 <CPUCE+0x36>
 8000dfc:	2008      	movs	r0, #8
 8000dfe:	f7ff fa2a 	bl	8000256 <CPUCE+0x36>
 8000e02:	f003 fea9 	bl	8004b58 <CPU+0x14c4>
 8000e06:	4be0      	ldr	r3, [pc, #896]	; (8001188 <CPUCE+0xf68>)
 8000e08:	0001      	movs	r1, r0
 8000e0a:	78a0      	ldrb	r0, [r4, #2]
 8000e0c:	f003 fea2 	bl	8004b54 <CPU+0x14c0>
 8000e10:	70a0      	strb	r0, [r4, #2]
 8000e12:	200c      	movs	r0, #12
 8000e14:	f7ff fa1f 	bl	8000256 <CPUCE+0x36>
 8000e18:	4bdc      	ldr	r3, [pc, #880]	; (800118c <CPUCE+0xf6c>)
 8000e1a:	f003 fe9b 	bl	8004b54 <CPU+0x14c0>
 8000e1e:	2008      	movs	r0, #8
 8000e20:	f7ff fa19 	bl	8000256 <CPUCE+0x36>
 8000e24:	4bda      	ldr	r3, [pc, #872]	; (8001190 <CPUCE+0xf70>)
 8000e26:	f003 fe95 	bl	8004b54 <CPU+0x14c0>
 8000e2a:	2008      	movs	r0, #8
 8000e2c:	f7ff fa13 	bl	8000256 <CPUCE+0x36>
 8000e30:	f003 fe92 	bl	8004b58 <CPU+0x14c4>
 8000e34:	0600      	lsls	r0, r0, #24
 8000e36:	4bd7      	ldr	r3, [pc, #860]	; (8001194 <CPUCE+0xf74>)
 8000e38:	1600      	asrs	r0, r0, #24
 8000e3a:	89e5      	ldrh	r5, [r4, #14]
 8000e3c:	f003 fe8a 	bl	8004b54 <CPU+0x14c0>
 8000e40:	7b63      	ldrb	r3, [r4, #13]
 8000e42:	1829      	adds	r1, r5, r0
 8000e44:	0409      	lsls	r1, r1, #16
 8000e46:	041b      	lsls	r3, r3, #16
 8000e48:	0c09      	lsrs	r1, r1, #16
 8000e4a:	4319      	orrs	r1, r3
 8000e4c:	2001      	movs	r0, #1
 8000e4e:	4bd2      	ldr	r3, [pc, #840]	; (8001198 <CPUCE+0xf78>)
 8000e50:	68e6      	ldr	r6, [r4, #12]
 8000e52:	f003 fe7f 	bl	8004b54 <CPU+0x14c0>
 8000e56:	0031      	movs	r1, r6
 8000e58:	0002      	movs	r2, r0
 8000e5a:	4bd0      	ldr	r3, [pc, #832]	; (800119c <CPUCE+0xf7c>)
 8000e5c:	2001      	movs	r0, #1
 8000e5e:	f003 fe79 	bl	8004b54 <CPU+0x14c0>
 8000e62:	2014      	movs	r0, #20
 8000e64:	f7ff f9f7 	bl	8000256 <CPUCE+0x36>
 8000e68:	4bcd      	ldr	r3, [pc, #820]	; (80011a0 <CPUCE+0xf80>)
 8000e6a:	f003 fe73 	bl	8004b54 <CPU+0x14c0>
 8000e6e:	4bca      	ldr	r3, [pc, #808]	; (8001198 <CPUCE+0xf78>)
 8000e70:	0001      	movs	r1, r0
 8000e72:	2001      	movs	r0, #1
 8000e74:	f003 fe6e 	bl	8004b54 <CPU+0x14c0>
 8000e78:	70e0      	strb	r0, [r4, #3]
 8000e7a:	2014      	movs	r0, #20
 8000e7c:	f7ff f9eb 	bl	8000256 <CPUCE+0x36>
 8000e80:	78e3      	ldrb	r3, [r4, #3]
 8000e82:	2008      	movs	r0, #8
 8000e84:	7363      	strb	r3, [r4, #13]
 8000e86:	f7ff f9e6 	bl	8000256 <CPUCE+0x36>
 8000e8a:	78e3      	ldrb	r3, [r4, #3]
 8000e8c:	2008      	movs	r0, #8
 8000e8e:	7263      	strb	r3, [r4, #9]
 8000e90:	f7ff f9e1 	bl	8000256 <CPUCE+0x36>
 8000e94:	78e3      	ldrb	r3, [r4, #3]
 8000e96:	2008      	movs	r0, #8
 8000e98:	7163      	strb	r3, [r4, #5]
 8000e9a:	7663      	strb	r3, [r4, #25]
 8000e9c:	f7ff f9db 	bl	8000256 <CPUCE+0x36>
 8000ea0:	78e0      	ldrb	r0, [r4, #3]
 8000ea2:	4bb4      	ldr	r3, [pc, #720]	; (8001174 <CPUCE+0xf54>)
 8000ea4:	f003 fe56 	bl	8004b54 <CPU+0x14c0>
 8000ea8:	2008      	movs	r0, #8
 8000eaa:	f7ff f9d4 	bl	8000256 <CPUCE+0x36>
 8000eae:	7b63      	ldrb	r3, [r4, #13]
 8000eb0:	2008      	movs	r0, #8
 8000eb2:	70e3      	strb	r3, [r4, #3]
 8000eb4:	f7ff f9cf 	bl	8000256 <CPUCE+0x36>
 8000eb8:	7a63      	ldrb	r3, [r4, #9]
 8000eba:	2008      	movs	r0, #8
 8000ebc:	70e3      	strb	r3, [r4, #3]
 8000ebe:	f7ff f9ca 	bl	8000256 <CPUCE+0x36>
 8000ec2:	f003 fe49 	bl	8004b58 <CPU+0x14c4>
 8000ec6:	0600      	lsls	r0, r0, #24
 8000ec8:	4bb2      	ldr	r3, [pc, #712]	; (8001194 <CPUCE+0xf74>)
 8000eca:	1600      	asrs	r0, r0, #24
 8000ecc:	89e5      	ldrh	r5, [r4, #14]
 8000ece:	f003 fe41 	bl	8004b54 <CPU+0x14c0>
 8000ed2:	7b63      	ldrb	r3, [r4, #13]
 8000ed4:	1829      	adds	r1, r5, r0
 8000ed6:	0409      	lsls	r1, r1, #16
 8000ed8:	041b      	lsls	r3, r3, #16
 8000eda:	0c09      	lsrs	r1, r1, #16
 8000edc:	4319      	orrs	r1, r3
 8000ede:	2001      	movs	r0, #1
 8000ee0:	4bad      	ldr	r3, [pc, #692]	; (8001198 <CPUCE+0xf78>)
 8000ee2:	f003 fe37 	bl	8004b54 <CPU+0x14c0>
 8000ee6:	71e0      	strb	r0, [r4, #7]
 8000ee8:	2040      	movs	r0, #64	; 0x40
 8000eea:	f7ff f9b4 	bl	8000256 <CPUCE+0x36>
 8000eee:	4bad      	ldr	r3, [pc, #692]	; (80011a4 <CPUCE+0xf84>)
 8000ef0:	f003 fe30 	bl	8004b54 <CPU+0x14c0>
 8000ef4:	2030      	movs	r0, #48	; 0x30
 8000ef6:	f7ff f9ae 	bl	8000256 <CPUCE+0x36>
 8000efa:	4ba9      	ldr	r3, [pc, #676]	; (80011a0 <CPUCE+0xf80>)
 8000efc:	f003 fe2a 	bl	8004b54 <CPU+0x14c0>
 8000f00:	79a2      	ldrb	r2, [r4, #6]
 8000f02:	0001      	movs	r1, r0
 8000f04:	4ba5      	ldr	r3, [pc, #660]	; (800119c <CPUCE+0xf7c>)
 8000f06:	2001      	movs	r0, #1
 8000f08:	f003 fe24 	bl	8004b54 <CPU+0x14c0>
 8000f0c:	2014      	movs	r0, #20
 8000f0e:	f7ff f9a2 	bl	8000256 <CPUCE+0x36>
 8000f12:	4ba3      	ldr	r3, [pc, #652]	; (80011a0 <CPUCE+0xf80>)
 8000f14:	f003 fe1e 	bl	8004b54 <CPU+0x14c0>
 8000f18:	79e2      	ldrb	r2, [r4, #7]
 8000f1a:	0001      	movs	r1, r0
 8000f1c:	4b9f      	ldr	r3, [pc, #636]	; (800119c <CPUCE+0xf7c>)
 8000f1e:	2001      	movs	r0, #1
 8000f20:	f003 fe18 	bl	8004b54 <CPU+0x14c0>
 8000f24:	2014      	movs	r0, #20
 8000f26:	f7ff f996 	bl	8000256 <CPUCE+0x36>
 8000f2a:	4b9d      	ldr	r3, [pc, #628]	; (80011a0 <CPUCE+0xf80>)
 8000f2c:	f003 fe12 	bl	8004b54 <CPU+0x14c0>
 8000f30:	78a2      	ldrb	r2, [r4, #2]
 8000f32:	0001      	movs	r1, r0
 8000f34:	4b99      	ldr	r3, [pc, #612]	; (800119c <CPUCE+0xf7c>)
 8000f36:	2001      	movs	r0, #1
 8000f38:	f003 fe0c 	bl	8004b54 <CPU+0x14c0>
 8000f3c:	2014      	movs	r0, #20
 8000f3e:	f7ff f98a 	bl	8000256 <CPUCE+0x36>
 8000f42:	4b97      	ldr	r3, [pc, #604]	; (80011a0 <CPUCE+0xf80>)
 8000f44:	f003 fe06 	bl	8004b54 <CPU+0x14c0>
 8000f48:	78e2      	ldrb	r2, [r4, #3]
 8000f4a:	0001      	movs	r1, r0
 8000f4c:	4b93      	ldr	r3, [pc, #588]	; (800119c <CPUCE+0xf7c>)
 8000f4e:	2001      	movs	r0, #1
 8000f50:	f003 fe00 	bl	8004b54 <CPU+0x14c0>
 8000f54:	2014      	movs	r0, #20
 8000f56:	f7ff f97e 	bl	8000256 <CPUCE+0x36>
 8000f5a:	4b91      	ldr	r3, [pc, #580]	; (80011a0 <CPUCE+0xf80>)
 8000f5c:	f003 fdfa 	bl	8004b54 <CPU+0x14c0>
 8000f60:	4b8d      	ldr	r3, [pc, #564]	; (8001198 <CPUCE+0xf78>)
 8000f62:	0001      	movs	r1, r0
 8000f64:	2001      	movs	r0, #1
 8000f66:	f003 fdf5 	bl	8004b54 <CPU+0x14c0>
 8000f6a:	71a0      	strb	r0, [r4, #6]
 8000f6c:	2014      	movs	r0, #20
 8000f6e:	f7ff f972 	bl	8000256 <CPUCE+0x36>
 8000f72:	4b8b      	ldr	r3, [pc, #556]	; (80011a0 <CPUCE+0xf80>)
 8000f74:	f003 fdee 	bl	8004b54 <CPU+0x14c0>
 8000f78:	4b87      	ldr	r3, [pc, #540]	; (8001198 <CPUCE+0xf78>)
 8000f7a:	0001      	movs	r1, r0
 8000f7c:	2001      	movs	r0, #1
 8000f7e:	f003 fde9 	bl	8004b54 <CPU+0x14c0>
 8000f82:	71e0      	strb	r0, [r4, #7]
 8000f84:	2014      	movs	r0, #20
 8000f86:	f7ff f966 	bl	8000256 <CPUCE+0x36>
 8000f8a:	f003 fde5 	bl	8004b58 <CPU+0x14c4>
 8000f8e:	7fe3      	ldrb	r3, [r4, #31]
 8000f90:	07db      	lsls	r3, r3, #31
 8000f92:	d401      	bmi.n	8000f98 <CPUCE+0xd78>
 8000f94:	f7ff f979 	bl	800028a <CPUCE+0x6a>
 8000f98:	0600      	lsls	r0, r0, #24
 8000f9a:	4b7e      	ldr	r3, [pc, #504]	; (8001194 <CPUCE+0xf74>)
 8000f9c:	1600      	asrs	r0, r0, #24
 8000f9e:	f003 fdd9 	bl	8004b54 <CPU+0x14c0>
 8000fa2:	4b81      	ldr	r3, [pc, #516]	; (80011a8 <CPUCE+0xf88>)
 8000fa4:	f003 fdd6 	bl	8004b54 <CPU+0x14c0>
 8000fa8:	200c      	movs	r0, #12
 8000faa:	f7ff f954 	bl	8000256 <CPUCE+0x36>
 8000fae:	f003 fdd3 	bl	8004b58 <CPU+0x14c4>
 8000fb2:	7fe3      	ldrb	r3, [r4, #31]
 8000fb4:	071b      	lsls	r3, r3, #28
 8000fb6:	d501      	bpl.n	8000fbc <CPUCE+0xd9c>
 8000fb8:	f7ff f967 	bl	800028a <CPUCE+0x6a>
 8000fbc:	0600      	lsls	r0, r0, #24
 8000fbe:	4b75      	ldr	r3, [pc, #468]	; (8001194 <CPUCE+0xf74>)
 8000fc0:	1600      	asrs	r0, r0, #24
 8000fc2:	f003 fdc7 	bl	8004b54 <CPU+0x14c0>
 8000fc6:	4b78      	ldr	r3, [pc, #480]	; (80011a8 <CPUCE+0xf88>)
 8000fc8:	f003 fdc4 	bl	8004b54 <CPU+0x14c0>
 8000fcc:	200c      	movs	r0, #12
 8000fce:	f7ff f942 	bl	8000256 <CPUCE+0x36>
 8000fd2:	f003 fdc1 	bl	8004b58 <CPU+0x14c4>
 8000fd6:	7fe3      	ldrb	r3, [r4, #31]
 8000fd8:	07db      	lsls	r3, r3, #31
 8000fda:	d501      	bpl.n	8000fe0 <CPUCE+0xdc0>
 8000fdc:	f7ff f955 	bl	800028a <CPUCE+0x6a>
 8000fe0:	0600      	lsls	r0, r0, #24
 8000fe2:	4b6c      	ldr	r3, [pc, #432]	; (8001194 <CPUCE+0xf74>)
 8000fe4:	1600      	asrs	r0, r0, #24
 8000fe6:	f003 fdb5 	bl	8004b54 <CPU+0x14c0>
 8000fea:	4b6f      	ldr	r3, [pc, #444]	; (80011a8 <CPUCE+0xf88>)
 8000fec:	f003 fdb2 	bl	8004b54 <CPU+0x14c0>
 8000ff0:	200c      	movs	r0, #12
 8000ff2:	f7ff f930 	bl	8000256 <CPUCE+0x36>
 8000ff6:	f003 fdaf 	bl	8004b58 <CPU+0x14c4>
 8000ffa:	7fe3      	ldrb	r3, [r4, #31]
 8000ffc:	075b      	lsls	r3, r3, #29
 8000ffe:	d501      	bpl.n	8001004 <CPUCE+0xde4>
 8001000:	f7ff f943 	bl	800028a <CPUCE+0x6a>
 8001004:	0600      	lsls	r0, r0, #24
 8001006:	4b63      	ldr	r3, [pc, #396]	; (8001194 <CPUCE+0xf74>)
 8001008:	1600      	asrs	r0, r0, #24
 800100a:	f003 fda3 	bl	8004b54 <CPU+0x14c0>
 800100e:	4b66      	ldr	r3, [pc, #408]	; (80011a8 <CPUCE+0xf88>)
 8001010:	f003 fda0 	bl	8004b54 <CPU+0x14c0>
 8001014:	200c      	movs	r0, #12
 8001016:	f7ff f91e 	bl	8000256 <CPUCE+0x36>
 800101a:	f003 fd9d 	bl	8004b58 <CPU+0x14c4>
 800101e:	7fa3      	ldrb	r3, [r4, #30]
 8001020:	071b      	lsls	r3, r3, #28
 8001022:	d501      	bpl.n	8001028 <CPUCE+0xe08>
 8001024:	f7ff f931 	bl	800028a <CPUCE+0x6a>
 8001028:	0600      	lsls	r0, r0, #24
 800102a:	4b5a      	ldr	r3, [pc, #360]	; (8001194 <CPUCE+0xf74>)
 800102c:	1600      	asrs	r0, r0, #24
 800102e:	f003 fd91 	bl	8004b54 <CPU+0x14c0>
 8001032:	4b5d      	ldr	r3, [pc, #372]	; (80011a8 <CPUCE+0xf88>)
 8001034:	f003 fd8e 	bl	8004b54 <CPU+0x14c0>
 8001038:	200c      	movs	r0, #12
 800103a:	f7ff f90c 	bl	8000256 <CPUCE+0x36>
 800103e:	f003 fd8b 	bl	8004b58 <CPU+0x14c4>
 8001042:	7fe3      	ldrb	r3, [r4, #31]
 8001044:	079b      	lsls	r3, r3, #30
 8001046:	d501      	bpl.n	800104c <CPUCE+0xe2c>
 8001048:	f7ff f91f 	bl	800028a <CPUCE+0x6a>
 800104c:	0600      	lsls	r0, r0, #24
 800104e:	4b51      	ldr	r3, [pc, #324]	; (8001194 <CPUCE+0xf74>)
 8001050:	1600      	asrs	r0, r0, #24
 8001052:	f003 fd7f 	bl	8004b54 <CPU+0x14c0>
 8001056:	4b54      	ldr	r3, [pc, #336]	; (80011a8 <CPUCE+0xf88>)
 8001058:	f003 fd7c 	bl	8004b54 <CPU+0x14c0>
 800105c:	200c      	movs	r0, #12
 800105e:	f7ff f8fa 	bl	8000256 <CPUCE+0x36>
 8001062:	f003 fd79 	bl	8004b58 <CPU+0x14c4>
 8001066:	7fa3      	ldrb	r3, [r4, #30]
 8001068:	071b      	lsls	r3, r3, #28
 800106a:	d401      	bmi.n	8001070 <CPUCE+0xe50>
 800106c:	f7ff f90d 	bl	800028a <CPUCE+0x6a>
 8001070:	0600      	lsls	r0, r0, #24
 8001072:	4b48      	ldr	r3, [pc, #288]	; (8001194 <CPUCE+0xf74>)
 8001074:	1600      	asrs	r0, r0, #24
 8001076:	f003 fd6d 	bl	8004b54 <CPU+0x14c0>
 800107a:	4b4b      	ldr	r3, [pc, #300]	; (80011a8 <CPUCE+0xf88>)
 800107c:	f003 fd6a 	bl	8004b54 <CPU+0x14c0>
 8001080:	200c      	movs	r0, #12
 8001082:	f7ff f8e8 	bl	8000256 <CPUCE+0x36>
 8001086:	f003 fd67 	bl	8004b58 <CPU+0x14c4>
 800108a:	7fa3      	ldrb	r3, [r4, #30]
 800108c:	075b      	lsls	r3, r3, #29
 800108e:	d501      	bpl.n	8001094 <CPUCE+0xe74>
 8001090:	f7ff f8fb 	bl	800028a <CPUCE+0x6a>
 8001094:	0600      	lsls	r0, r0, #24
 8001096:	4b3f      	ldr	r3, [pc, #252]	; (8001194 <CPUCE+0xf74>)
 8001098:	1600      	asrs	r0, r0, #24
 800109a:	f003 fd5b 	bl	8004b54 <CPU+0x14c0>
 800109e:	4b42      	ldr	r3, [pc, #264]	; (80011a8 <CPUCE+0xf88>)
 80010a0:	f003 fd58 	bl	8004b54 <CPU+0x14c0>
 80010a4:	200c      	movs	r0, #12
 80010a6:	f7ff f8d6 	bl	8000256 <CPUCE+0x36>
 80010aa:	f003 fd55 	bl	8004b58 <CPU+0x14c4>
 80010ae:	0600      	lsls	r0, r0, #24
 80010b0:	4b38      	ldr	r3, [pc, #224]	; (8001194 <CPUCE+0xf74>)
 80010b2:	1600      	asrs	r0, r0, #24
 80010b4:	89e5      	ldrh	r5, [r4, #14]
 80010b6:	f003 fd4d 	bl	8004b54 <CPU+0x14c0>
 80010ba:	7b63      	ldrb	r3, [r4, #13]
 80010bc:	1829      	adds	r1, r5, r0
 80010be:	0409      	lsls	r1, r1, #16
 80010c0:	041b      	lsls	r3, r3, #16
 80010c2:	0c09      	lsrs	r1, r1, #16
 80010c4:	4319      	orrs	r1, r3
 80010c6:	2001      	movs	r0, #1
 80010c8:	4b33      	ldr	r3, [pc, #204]	; (8001198 <CPUCE+0xf78>)
 80010ca:	78e6      	ldrb	r6, [r4, #3]
 80010cc:	f003 fd42 	bl	8004b54 <CPU+0x14c0>
 80010d0:	4b36      	ldr	r3, [pc, #216]	; (80011ac <CPUCE+0xf8c>)
 80010d2:	0001      	movs	r1, r0
 80010d4:	0030      	movs	r0, r6
 80010d6:	f003 fd3d 	bl	8004b54 <CPU+0x14c0>
 80010da:	70e0      	strb	r0, [r4, #3]
 80010dc:	2010      	movs	r0, #16
 80010de:	f7ff f8ba 	bl	8000256 <CPUCE+0x36>
 80010e2:	f003 fd39 	bl	8004b58 <CPU+0x14c4>
 80010e6:	7fa3      	ldrb	r3, [r4, #30]
 80010e8:	075b      	lsls	r3, r3, #29
 80010ea:	d401      	bmi.n	80010f0 <CPUCE+0xed0>
 80010ec:	f7ff f8cd 	bl	800028a <CPUCE+0x6a>
 80010f0:	0600      	lsls	r0, r0, #24
 80010f2:	4b28      	ldr	r3, [pc, #160]	; (8001194 <CPUCE+0xf74>)
 80010f4:	1600      	asrs	r0, r0, #24
 80010f6:	f003 fd2d 	bl	8004b54 <CPU+0x14c0>
 80010fa:	4b2d      	ldr	r3, [pc, #180]	; (80011b0 <CPUCE+0xf90>)
 80010fc:	f003 fd2a 	bl	8004b54 <CPU+0x14c0>
 8001100:	200c      	movs	r0, #12
 8001102:	f7ff f8a8 	bl	8000256 <CPUCE+0x36>
 8001106:	f003 fd27 	bl	8004b58 <CPU+0x14c4>
 800110a:	7fa3      	ldrb	r3, [r4, #30]
 800110c:	2401      	movs	r4, #1
 800110e:	2201      	movs	r2, #1
 8001110:	0899      	lsrs	r1, r3, #2
 8001112:	08db      	lsrs	r3, r3, #3
 8001114:	4063      	eors	r3, r4
 8001116:	4011      	ands	r1, r2
 8001118:	4013      	ands	r3, r2
 800111a:	4299      	cmp	r1, r3
 800111c:	d101      	bne.n	8001122 <CPUCE+0xf02>
 800111e:	f7ff f8b4 	bl	800028a <CPUCE+0x6a>
 8001122:	0600      	lsls	r0, r0, #24
 8001124:	4b1b      	ldr	r3, [pc, #108]	; (8001194 <CPUCE+0xf74>)
 8001126:	1600      	asrs	r0, r0, #24
 8001128:	f003 fd14 	bl	8004b54 <CPU+0x14c0>
 800112c:	4b20      	ldr	r3, [pc, #128]	; (80011b0 <CPUCE+0xf90>)
 800112e:	f003 fd11 	bl	8004b54 <CPU+0x14c0>
 8001132:	200c      	movs	r0, #12
 8001134:	f7ff f88f 	bl	8000256 <CPUCE+0x36>
 8001138:	f003 fd0e 	bl	8004b58 <CPU+0x14c4>
 800113c:	2101      	movs	r1, #1
 800113e:	7fa2      	ldrb	r2, [r4, #30]
 8001140:	0893      	lsrs	r3, r2, #2
 8001142:	404b      	eors	r3, r1
 8001144:	2101      	movs	r1, #1
 8001146:	08d4      	lsrs	r4, r2, #3
 8001148:	400b      	ands	r3, r1
 800114a:	400c      	ands	r4, r1
 800114c:	42a3      	cmp	r3, r4
 800114e:	d101      	bne.n	8001154 <CPUCE+0xf34>
 8001150:	f7ff f89b 	bl	800028a <CPUCE+0x6a>
 8001154:	4211      	tst	r1, r2
 8001156:	d001      	beq.n	800115c <CPUCE+0xf3c>
 8001158:	f7ff f897 	bl	800028a <CPUCE+0x6a>
 800115c:	0600      	lsls	r0, r0, #24
 800115e:	4b0d      	ldr	r3, [pc, #52]	; (8001194 <CPUCE+0xf74>)
 8001160:	1600      	asrs	r0, r0, #24
 8001162:	f003 fcf7 	bl	8004b54 <CPU+0x14c0>
 8001166:	4b12      	ldr	r3, [pc, #72]	; (80011b0 <CPUCE+0xf90>)
 8001168:	f003 fcf4 	bl	8004b54 <CPU+0x14c0>
 800116c:	200c      	movs	r0, #12
 800116e:	f7ff f872 	bl	8000256 <CPUCE+0x36>
 8001172:	46c0      	nop			; (mov r8, r8)
 8001174:	08005679 	stmdaeq	r0, {r0, r3, r4, r5, r6, r9, sl, ip, lr}
 8001178:	08005d29 	stmdaeq	r0, {r0, r3, r5, r8, sl, fp, ip, lr}
 800117c:	08005629 	stmdaeq	r0, {r0, r3, r5, r9, sl, ip, lr}
 8001180:	0000abce 	andeq	sl, r0, lr, asr #23
 8001184:	080060d5 	stmdaeq	r0, {r0, r2, r4, r6, r7, sp, lr}
 8001188:	0800538d 	stmdaeq	r0, {r0, r2, r3, r7, r8, r9, ip, lr}
 800118c:	08005691 	stmdaeq	r0, {r0, r4, r7, r9, sl, ip, lr}
 8001190:	080056a1 	stmdaeq	r0, {r0, r5, r7, r9, sl, ip, lr}
 8001194:	08005511 	stmdaeq	r0, {r0, r4, r8, sl, ip, lr}
 8001198:	08004b5d 	stmdaeq	r0, {r0, r2, r3, r4, r6, r8, r9, fp, lr}
 800119c:	08004be9 	stmdaeq	r0, {r0, r3, r5, r6, r7, r8, r9, fp, lr}
 80011a0:	08005481 	stmdaeq	r0, {r0, r7, sl, ip, lr}
 80011a4:	080055f1 	stmdaeq	r0, {r0, r4, r5, r6, r7, r8, sl, ip, lr}
 80011a8:	080053e1 	stmdaeq	r0, {r0, r5, r6, r7, r8, r9, ip, lr}
 80011ac:	08004ef9 	stmdaeq	r0, {r0, r3, r4, r5, r6, r7, r9, sl, fp, lr}
 80011b0:	080054f5 	stmdaeq	r0, {r0, r2, r4, r5, r6, r7, sl, ip, lr}
 80011b4:	f003 fcd0 	bl	8004b58 <CPU+0x14c4>
 80011b8:	2501      	movs	r5, #1
 80011ba:	7fa1      	ldrb	r1, [r4, #30]
 80011bc:	2401      	movs	r4, #1
 80011be:	088a      	lsrs	r2, r1, #2
 80011c0:	08cb      	lsrs	r3, r1, #3
 80011c2:	406a      	eors	r2, r5
 80011c4:	406b      	eors	r3, r5
 80011c6:	4022      	ands	r2, r4
 80011c8:	4023      	ands	r3, r4
 80011ca:	429a      	cmp	r2, r3
 80011cc:	d103      	bne.n	80011d6 <CPUCE+0xfb6>
 80011ce:	420c      	tst	r4, r1
 80011d0:	d101      	bne.n	80011d6 <CPUCE+0xfb6>
 80011d2:	f7ff f85a 	bl	800028a <CPUCE+0x6a>
 80011d6:	0600      	lsls	r0, r0, #24
 80011d8:	4bee      	ldr	r3, [pc, #952]	; (8001594 <CPUCE+0x1374>)
 80011da:	1600      	asrs	r0, r0, #24
 80011dc:	f003 fcba 	bl	8004b54 <CPU+0x14c0>
 80011e0:	4bed      	ldr	r3, [pc, #948]	; (8001598 <CPUCE+0x1378>)
 80011e2:	f003 fcb7 	bl	8004b54 <CPU+0x14c0>
 80011e6:	200c      	movs	r0, #12
 80011e8:	f7ff f835 	bl	8000256 <CPUCE+0x36>
 80011ec:	f003 fcb4 	bl	8004b58 <CPU+0x14c4>
 80011f0:	2301      	movs	r3, #1
 80011f2:	7fa2      	ldrb	r2, [r4, #30]
 80011f4:	0891      	lsrs	r1, r2, #2
 80011f6:	08d2      	lsrs	r2, r2, #3
 80011f8:	4019      	ands	r1, r3
 80011fa:	4013      	ands	r3, r2
 80011fc:	4299      	cmp	r1, r3
 80011fe:	d101      	bne.n	8001204 <CPUCE+0xfe4>
 8001200:	f7ff f843 	bl	800028a <CPUCE+0x6a>
 8001204:	0600      	lsls	r0, r0, #24
 8001206:	4be3      	ldr	r3, [pc, #908]	; (8001594 <CPUCE+0x1374>)
 8001208:	1600      	asrs	r0, r0, #24
 800120a:	f003 fca3 	bl	8004b54 <CPU+0x14c0>
 800120e:	4be2      	ldr	r3, [pc, #904]	; (8001598 <CPUCE+0x1378>)
 8001210:	f003 fca0 	bl	8004b54 <CPU+0x14c0>
 8001214:	200c      	movs	r0, #12
 8001216:	f7ff f81e 	bl	8000256 <CPUCE+0x36>
 800121a:	f003 fc9d 	bl	8004b58 <CPU+0x14c4>
 800121e:	7fe3      	ldrb	r3, [r4, #31]
 8001220:	071b      	lsls	r3, r3, #28
 8001222:	d401      	bmi.n	8001228 <CPUCE+0x1008>
 8001224:	f7ff f831 	bl	800028a <CPUCE+0x6a>
 8001228:	0600      	lsls	r0, r0, #24
 800122a:	4bda      	ldr	r3, [pc, #872]	; (8001594 <CPUCE+0x1374>)
 800122c:	1600      	asrs	r0, r0, #24
 800122e:	f003 fc91 	bl	8004b54 <CPU+0x14c0>
 8001232:	4bda      	ldr	r3, [pc, #872]	; (800159c <CPUCE+0x137c>)
 8001234:	f003 fc8e 	bl	8004b54 <CPU+0x14c0>
 8001238:	200c      	movs	r0, #12
 800123a:	f7ff f80c 	bl	8000256 <CPUCE+0x36>
 800123e:	f003 fc8b 	bl	8004b58 <CPU+0x14c4>
 8001242:	7fe3      	ldrb	r3, [r4, #31]
 8001244:	075b      	lsls	r3, r3, #29
 8001246:	d401      	bmi.n	800124c <CPUCE+0x102c>
 8001248:	f7ff f81f 	bl	800028a <CPUCE+0x6a>
 800124c:	0600      	lsls	r0, r0, #24
 800124e:	4bd1      	ldr	r3, [pc, #836]	; (8001594 <CPUCE+0x1374>)
 8001250:	1600      	asrs	r0, r0, #24
 8001252:	f003 fc7f 	bl	8004b54 <CPU+0x14c0>
 8001256:	4bd1      	ldr	r3, [pc, #836]	; (800159c <CPUCE+0x137c>)
 8001258:	f003 fc7c 	bl	8004b54 <CPU+0x14c0>
 800125c:	200c      	movs	r0, #12
 800125e:	f7fe fffa 	bl	8000256 <CPUCE+0x36>
 8001262:	f003 fc79 	bl	8004b58 <CPU+0x14c4>
 8001266:	7fe3      	ldrb	r3, [r4, #31]
 8001268:	07db      	lsls	r3, r3, #31
 800126a:	d501      	bpl.n	8001270 <CPUCE+0x1050>
 800126c:	f7ff f80d 	bl	800028a <CPUCE+0x6a>
 8001270:	0600      	lsls	r0, r0, #24
 8001272:	4bc8      	ldr	r3, [pc, #800]	; (8001594 <CPUCE+0x1374>)
 8001274:	1600      	asrs	r0, r0, #24
 8001276:	f003 fc6d 	bl	8004b54 <CPU+0x14c0>
 800127a:	4bc7      	ldr	r3, [pc, #796]	; (8001598 <CPUCE+0x1378>)
 800127c:	f003 fc6a 	bl	8004b54 <CPU+0x14c0>
 8001280:	200c      	movs	r0, #12
 8001282:	f7fe ffe8 	bl	8000256 <CPUCE+0x36>
 8001286:	f003 fc67 	bl	8004b58 <CPU+0x14c4>
 800128a:	7fe3      	ldrb	r3, [r4, #31]
 800128c:	079b      	lsls	r3, r3, #30
 800128e:	d401      	bmi.n	8001294 <CPUCE+0x1074>
 8001290:	f7fe fffb 	bl	800028a <CPUCE+0x6a>
 8001294:	0600      	lsls	r0, r0, #24
 8001296:	4bbf      	ldr	r3, [pc, #764]	; (8001594 <CPUCE+0x1374>)
 8001298:	1600      	asrs	r0, r0, #24
 800129a:	f003 fc5b 	bl	8004b54 <CPU+0x14c0>
 800129e:	4bbf      	ldr	r3, [pc, #764]	; (800159c <CPUCE+0x137c>)
 80012a0:	f003 fc58 	bl	8004b54 <CPU+0x14c0>
 80012a4:	200c      	movs	r0, #12
 80012a6:	f7fe ffd6 	bl	8000256 <CPUCE+0x36>
 80012aa:	f003 fc55 	bl	8004b58 <CPU+0x14c4>
 80012ae:	7fe3      	ldrb	r3, [r4, #31]
 80012b0:	075b      	lsls	r3, r3, #29
 80012b2:	d501      	bpl.n	80012b8 <CPUCE+0x1098>
 80012b4:	f7fe ffe9 	bl	800028a <CPUCE+0x6a>
 80012b8:	0600      	lsls	r0, r0, #24
 80012ba:	4bb6      	ldr	r3, [pc, #728]	; (8001594 <CPUCE+0x1374>)
 80012bc:	1600      	asrs	r0, r0, #24
 80012be:	f003 fc49 	bl	8004b54 <CPU+0x14c0>
 80012c2:	4bb5      	ldr	r3, [pc, #724]	; (8001598 <CPUCE+0x1378>)
 80012c4:	f003 fc46 	bl	8004b54 <CPU+0x14c0>
 80012c8:	200c      	movs	r0, #12
 80012ca:	f7fe ffc4 	bl	8000256 <CPUCE+0x36>
 80012ce:	f003 fc43 	bl	8004b58 <CPU+0x14c4>
 80012d2:	7fa3      	ldrb	r3, [r4, #30]
 80012d4:	071b      	lsls	r3, r3, #28
 80012d6:	d501      	bpl.n	80012dc <CPUCE+0x10bc>
 80012d8:	f7fe ffd7 	bl	800028a <CPUCE+0x6a>
 80012dc:	0600      	lsls	r0, r0, #24
 80012de:	4bad      	ldr	r3, [pc, #692]	; (8001594 <CPUCE+0x1374>)
 80012e0:	1600      	asrs	r0, r0, #24
 80012e2:	f003 fc37 	bl	8004b54 <CPU+0x14c0>
 80012e6:	4bac      	ldr	r3, [pc, #688]	; (8001598 <CPUCE+0x1378>)
 80012e8:	f003 fc34 	bl	8004b54 <CPU+0x14c0>
 80012ec:	200c      	movs	r0, #12
 80012ee:	f7fe ffb2 	bl	8000256 <CPUCE+0x36>
 80012f2:	f003 fc31 	bl	8004b58 <CPU+0x14c4>
 80012f6:	0600      	lsls	r0, r0, #24
 80012f8:	4ba6      	ldr	r3, [pc, #664]	; (8001594 <CPUCE+0x1374>)
 80012fa:	1600      	asrs	r0, r0, #24
 80012fc:	8965      	ldrh	r5, [r4, #10]
 80012fe:	f003 fc29 	bl	8004b54 <CPU+0x14c0>
 8001302:	7a63      	ldrb	r3, [r4, #9]
 8001304:	1829      	adds	r1, r5, r0
 8001306:	0409      	lsls	r1, r1, #16
 8001308:	041b      	lsls	r3, r3, #16
 800130a:	0c09      	lsrs	r1, r1, #16
 800130c:	4319      	orrs	r1, r3
 800130e:	2001      	movs	r0, #1
 8001310:	4ba3      	ldr	r3, [pc, #652]	; (80015a0 <CPUCE+0x1380>)
 8001312:	78e6      	ldrb	r6, [r4, #3]
 8001314:	f003 fc1e 	bl	8004b54 <CPU+0x14c0>
 8001318:	4ba2      	ldr	r3, [pc, #648]	; (80015a4 <CPUCE+0x1384>)
 800131a:	0001      	movs	r1, r0
 800131c:	0030      	movs	r0, r6
 800131e:	f003 fc19 	bl	8004b54 <CPU+0x14c0>
 8001322:	70e0      	strb	r0, [r4, #3]
 8001324:	2010      	movs	r0, #16
 8001326:	f7fe ff96 	bl	8000256 <CPUCE+0x36>
 800132a:	f003 fc15 	bl	8004b58 <CPU+0x14c4>
 800132e:	7fa3      	ldrb	r3, [r4, #30]
 8001330:	071b      	lsls	r3, r3, #28
 8001332:	d401      	bmi.n	8001338 <CPUCE+0x1118>
 8001334:	f7fe ffa9 	bl	800028a <CPUCE+0x6a>
 8001338:	0600      	lsls	r0, r0, #24
 800133a:	4b96      	ldr	r3, [pc, #600]	; (8001594 <CPUCE+0x1374>)
 800133c:	1600      	asrs	r0, r0, #24
 800133e:	f003 fc09 	bl	8004b54 <CPU+0x14c0>
 8001342:	4b95      	ldr	r3, [pc, #596]	; (8001598 <CPUCE+0x1378>)
 8001344:	f003 fc06 	bl	8004b54 <CPU+0x14c0>
 8001348:	200c      	movs	r0, #12
 800134a:	f7fe ff84 	bl	8000256 <CPUCE+0x36>
 800134e:	f003 fc03 	bl	8004b58 <CPU+0x14c4>
 8001352:	7fa3      	ldrb	r3, [r4, #30]
 8001354:	075b      	lsls	r3, r3, #29
 8001356:	d501      	bpl.n	800135c <CPUCE+0x113c>
 8001358:	f7fe ff97 	bl	800028a <CPUCE+0x6a>
 800135c:	0600      	lsls	r0, r0, #24
 800135e:	4b8d      	ldr	r3, [pc, #564]	; (8001594 <CPUCE+0x1374>)
 8001360:	1600      	asrs	r0, r0, #24
 8001362:	f003 fbf7 	bl	8004b54 <CPU+0x14c0>
 8001366:	4b8c      	ldr	r3, [pc, #560]	; (8001598 <CPUCE+0x1378>)
 8001368:	f003 fbf4 	bl	8004b54 <CPU+0x14c0>
 800136c:	200c      	movs	r0, #12
 800136e:	f7fe ff72 	bl	8000256 <CPUCE+0x36>
 8001372:	f003 fbf1 	bl	8004b58 <CPU+0x14c4>
 8001376:	7fe3      	ldrb	r3, [r4, #31]
 8001378:	079b      	lsls	r3, r3, #30
 800137a:	d501      	bpl.n	8001380 <CPUCE+0x1160>
 800137c:	f7fe ff85 	bl	800028a <CPUCE+0x6a>
 8001380:	0600      	lsls	r0, r0, #24
 8001382:	4b84      	ldr	r3, [pc, #528]	; (8001594 <CPUCE+0x1374>)
 8001384:	1600      	asrs	r0, r0, #24
 8001386:	f003 fbe5 	bl	8004b54 <CPU+0x14c0>
 800138a:	4b83      	ldr	r3, [pc, #524]	; (8001598 <CPUCE+0x1378>)
 800138c:	f003 fbe2 	bl	8004b54 <CPU+0x14c0>
 8001390:	200c      	movs	r0, #12
 8001392:	f7fe ff60 	bl	8000256 <CPUCE+0x36>
 8001396:	f003 fbdf 	bl	8004b58 <CPU+0x14c4>
 800139a:	0600      	lsls	r0, r0, #24
 800139c:	4b7d      	ldr	r3, [pc, #500]	; (8001594 <CPUCE+0x1374>)
 800139e:	1600      	asrs	r0, r0, #24
 80013a0:	89e5      	ldrh	r5, [r4, #14]
 80013a2:	f003 fbd7 	bl	8004b54 <CPU+0x14c0>
 80013a6:	7b63      	ldrb	r3, [r4, #13]
 80013a8:	1829      	adds	r1, r5, r0
 80013aa:	0409      	lsls	r1, r1, #16
 80013ac:	041b      	lsls	r3, r3, #16
 80013ae:	0c09      	lsrs	r1, r1, #16
 80013b0:	4319      	orrs	r1, r3
 80013b2:	2001      	movs	r0, #1
 80013b4:	4b7a      	ldr	r3, [pc, #488]	; (80015a0 <CPUCE+0x1380>)
 80013b6:	78e6      	ldrb	r6, [r4, #3]
 80013b8:	f003 fbcc 	bl	8004b54 <CPU+0x14c0>
 80013bc:	4b7a      	ldr	r3, [pc, #488]	; (80015a8 <CPUCE+0x1388>)
 80013be:	0001      	movs	r1, r0
 80013c0:	0030      	movs	r0, r6
 80013c2:	f003 fbc7 	bl	8004b54 <CPU+0x14c0>
 80013c6:	70e0      	strb	r0, [r4, #3]
 80013c8:	2010      	movs	r0, #16
 80013ca:	f7fe ff44 	bl	8000256 <CPUCE+0x36>
 80013ce:	f003 fbc3 	bl	8004b58 <CPU+0x14c4>
 80013d2:	0600      	lsls	r0, r0, #24
 80013d4:	4b6f      	ldr	r3, [pc, #444]	; (8001594 <CPUCE+0x1374>)
 80013d6:	1600      	asrs	r0, r0, #24
 80013d8:	89e5      	ldrh	r5, [r4, #14]
 80013da:	f003 fbbb 	bl	8004b54 <CPU+0x14c0>
 80013de:	7b63      	ldrb	r3, [r4, #13]
 80013e0:	1829      	adds	r1, r5, r0
 80013e2:	0409      	lsls	r1, r1, #16
 80013e4:	041b      	lsls	r3, r3, #16
 80013e6:	0c09      	lsrs	r1, r1, #16
 80013e8:	4319      	orrs	r1, r3
 80013ea:	2001      	movs	r0, #1
 80013ec:	4b6c      	ldr	r3, [pc, #432]	; (80015a0 <CPUCE+0x1380>)
 80013ee:	78e6      	ldrb	r6, [r4, #3]
 80013f0:	f003 fbb0 	bl	8004b54 <CPU+0x14c0>
 80013f4:	4b6d      	ldr	r3, [pc, #436]	; (80015ac <CPUCE+0x138c>)
 80013f6:	0001      	movs	r1, r0
 80013f8:	0030      	movs	r0, r6
 80013fa:	f003 fbab 	bl	8004b54 <CPU+0x14c0>
 80013fe:	70e0      	strb	r0, [r4, #3]
 8001400:	2010      	movs	r0, #16
 8001402:	f7fe ff28 	bl	8000256 <CPUCE+0x36>
 8001406:	f003 fba7 	bl	8004b58 <CPU+0x14c4>
 800140a:	0600      	lsls	r0, r0, #24
 800140c:	4b61      	ldr	r3, [pc, #388]	; (8001594 <CPUCE+0x1374>)
 800140e:	1600      	asrs	r0, r0, #24
 8001410:	8965      	ldrh	r5, [r4, #10]
 8001412:	f003 fb9f 	bl	8004b54 <CPU+0x14c0>
 8001416:	7a63      	ldrb	r3, [r4, #9]
 8001418:	1829      	adds	r1, r5, r0
 800141a:	0409      	lsls	r1, r1, #16
 800141c:	041b      	lsls	r3, r3, #16
 800141e:	0c09      	lsrs	r1, r1, #16
 8001420:	4319      	orrs	r1, r3
 8001422:	2001      	movs	r0, #1
 8001424:	4b5e      	ldr	r3, [pc, #376]	; (80015a0 <CPUCE+0x1380>)
 8001426:	78e6      	ldrb	r6, [r4, #3]
 8001428:	f003 fb94 	bl	8004b54 <CPU+0x14c0>
 800142c:	4b5f      	ldr	r3, [pc, #380]	; (80015ac <CPUCE+0x138c>)
 800142e:	0001      	movs	r1, r0
 8001430:	0030      	movs	r0, r6
 8001432:	f003 fb8f 	bl	8004b54 <CPU+0x14c0>
 8001436:	70e0      	strb	r0, [r4, #3]
 8001438:	2010      	movs	r0, #16
 800143a:	f7fe ff0c 	bl	8000256 <CPUCE+0x36>
 800143e:	6865      	ldr	r5, [r4, #4]
 8001440:	4e57      	ldr	r6, [pc, #348]	; (80015a0 <CPUCE+0x1380>)
 8001442:	0029      	movs	r1, r5
 8001444:	2001      	movs	r0, #1
 8001446:	f003 fb88 	bl	8004b5a <CPU+0x14c6>
 800144a:	68e1      	ldr	r1, [r4, #12]
 800144c:	0007      	movs	r7, r0
 800144e:	2001      	movs	r0, #1
 8001450:	f003 fb83 	bl	8004b5a <CPU+0x14c6>
 8001454:	4b56      	ldr	r3, [pc, #344]	; (80015b0 <CPUCE+0x1390>)
 8001456:	0001      	movs	r1, r0
 8001458:	0038      	movs	r0, r7
 800145a:	f003 fb7b 	bl	8004b54 <CPU+0x14c0>
 800145e:	0029      	movs	r1, r5
 8001460:	0002      	movs	r2, r0
 8001462:	4b54      	ldr	r3, [pc, #336]	; (80015b4 <CPUCE+0x1394>)
 8001464:	2001      	movs	r0, #1
 8001466:	f003 fb75 	bl	8004b54 <CPU+0x14c0>
 800146a:	2014      	movs	r0, #20
 800146c:	f7fe fef3 	bl	8000256 <CPUCE+0x36>
 8001470:	6865      	ldr	r5, [r4, #4]
 8001472:	4e4b      	ldr	r6, [pc, #300]	; (80015a0 <CPUCE+0x1380>)
 8001474:	0029      	movs	r1, r5
 8001476:	2001      	movs	r0, #1
 8001478:	f003 fb6f 	bl	8004b5a <CPU+0x14c6>
 800147c:	68a1      	ldr	r1, [r4, #8]
 800147e:	0007      	movs	r7, r0
 8001480:	2001      	movs	r0, #1
 8001482:	f003 fb6a 	bl	8004b5a <CPU+0x14c6>
 8001486:	4b4a      	ldr	r3, [pc, #296]	; (80015b0 <CPUCE+0x1390>)
 8001488:	0001      	movs	r1, r0
 800148a:	0038      	movs	r0, r7
 800148c:	f003 fb62 	bl	8004b54 <CPU+0x14c0>
 8001490:	0029      	movs	r1, r5
 8001492:	0002      	movs	r2, r0
 8001494:	4b47      	ldr	r3, [pc, #284]	; (80015b4 <CPUCE+0x1394>)
 8001496:	2001      	movs	r0, #1
 8001498:	f003 fb5c 	bl	8004b54 <CPU+0x14c0>
 800149c:	2014      	movs	r0, #20
 800149e:	f7fe feda 	bl	8000256 <CPUCE+0x36>
 80014a2:	f003 fb59 	bl	8004b58 <CPU+0x14c4>
 80014a6:	0005      	movs	r5, r0
 80014a8:	6864      	ldr	r4, [r4, #4]
 80014aa:	4b3d      	ldr	r3, [pc, #244]	; (80015a0 <CPUCE+0x1380>)
 80014ac:	0021      	movs	r1, r4
 80014ae:	2001      	movs	r0, #1
 80014b0:	f003 fb50 	bl	8004b54 <CPU+0x14c0>
 80014b4:	0029      	movs	r1, r5
 80014b6:	4b3e      	ldr	r3, [pc, #248]	; (80015b0 <CPUCE+0x1390>)
 80014b8:	f003 fb4c 	bl	8004b54 <CPU+0x14c0>
 80014bc:	0021      	movs	r1, r4
 80014be:	0002      	movs	r2, r0
 80014c0:	4b3c      	ldr	r3, [pc, #240]	; (80015b4 <CPUCE+0x1394>)
 80014c2:	2001      	movs	r0, #1
 80014c4:	f003 fb46 	bl	8004b54 <CPU+0x14c0>
 80014c8:	2014      	movs	r0, #20
 80014ca:	f7fe fec4 	bl	8000256 <CPUCE+0x36>
 80014ce:	6865      	ldr	r5, [r4, #4]
 80014d0:	4b33      	ldr	r3, [pc, #204]	; (80015a0 <CPUCE+0x1380>)
 80014d2:	0029      	movs	r1, r5
 80014d4:	2001      	movs	r0, #1
 80014d6:	f003 fb3d 	bl	8004b54 <CPU+0x14c0>
 80014da:	78e1      	ldrb	r1, [r4, #3]
 80014dc:	4b34      	ldr	r3, [pc, #208]	; (80015b0 <CPUCE+0x1390>)
 80014de:	f003 fb39 	bl	8004b54 <CPU+0x14c0>
 80014e2:	0029      	movs	r1, r5
 80014e4:	0002      	movs	r2, r0
 80014e6:	4b33      	ldr	r3, [pc, #204]	; (80015b4 <CPUCE+0x1394>)
 80014e8:	2001      	movs	r0, #1
 80014ea:	f003 fb33 	bl	8004b54 <CPU+0x14c0>
 80014ee:	2010      	movs	r0, #16
 80014f0:	f7fe feb1 	bl	8000256 <CPUCE+0x36>
 80014f4:	2007      	movs	r0, #7
 80014f6:	4b27      	ldr	r3, [pc, #156]	; (8001594 <CPUCE+0x1374>)
 80014f8:	5620      	ldrsb	r0, [r4, r0]
 80014fa:	89e5      	ldrh	r5, [r4, #14]
 80014fc:	f003 fb2a 	bl	8004b54 <CPU+0x14c0>
 8001500:	7b63      	ldrb	r3, [r4, #13]
 8001502:	1829      	adds	r1, r5, r0
 8001504:	0409      	lsls	r1, r1, #16
 8001506:	041b      	lsls	r3, r3, #16
 8001508:	0c09      	lsrs	r1, r1, #16
 800150a:	4319      	orrs	r1, r3
 800150c:	2001      	movs	r0, #1
 800150e:	4b24      	ldr	r3, [pc, #144]	; (80015a0 <CPUCE+0x1380>)
 8001510:	78e6      	ldrb	r6, [r4, #3]
 8001512:	f003 fb1f 	bl	8004b54 <CPU+0x14c0>
 8001516:	4b26      	ldr	r3, [pc, #152]	; (80015b0 <CPUCE+0x1390>)
 8001518:	0001      	movs	r1, r0
 800151a:	0030      	movs	r0, r6
 800151c:	f003 fb1a 	bl	8004b54 <CPU+0x14c0>
 8001520:	70e0      	strb	r0, [r4, #3]
 8001522:	2010      	movs	r0, #16
 8001524:	f7fe fe97 	bl	8000256 <CPUCE+0x36>
 8001528:	2007      	movs	r0, #7
 800152a:	4b1a      	ldr	r3, [pc, #104]	; (8001594 <CPUCE+0x1374>)
 800152c:	5620      	ldrsb	r0, [r4, r0]
 800152e:	8965      	ldrh	r5, [r4, #10]
 8001530:	f003 fb10 	bl	8004b54 <CPU+0x14c0>
 8001534:	7a63      	ldrb	r3, [r4, #9]
 8001536:	1829      	adds	r1, r5, r0
 8001538:	0409      	lsls	r1, r1, #16
 800153a:	041b      	lsls	r3, r3, #16
 800153c:	0c09      	lsrs	r1, r1, #16
 800153e:	4319      	orrs	r1, r3
 8001540:	2001      	movs	r0, #1
 8001542:	4b17      	ldr	r3, [pc, #92]	; (80015a0 <CPUCE+0x1380>)
 8001544:	78e6      	ldrb	r6, [r4, #3]
 8001546:	f003 fb05 	bl	8004b54 <CPU+0x14c0>
 800154a:	4b19      	ldr	r3, [pc, #100]	; (80015b0 <CPUCE+0x1390>)
 800154c:	0001      	movs	r1, r0
 800154e:	0030      	movs	r0, r6
 8001550:	f003 fb00 	bl	8004b54 <CPU+0x14c0>
 8001554:	70e0      	strb	r0, [r4, #3]
 8001556:	2010      	movs	r0, #16
 8001558:	f7fe fe7d 	bl	8000256 <CPUCE+0x36>
 800155c:	f003 fafc 	bl	8004b58 <CPU+0x14c4>
 8001560:	0600      	lsls	r0, r0, #24
 8001562:	4b0c      	ldr	r3, [pc, #48]	; (8001594 <CPUCE+0x1374>)
 8001564:	1600      	asrs	r0, r0, #24
 8001566:	89e5      	ldrh	r5, [r4, #14]
 8001568:	f003 faf4 	bl	8004b54 <CPU+0x14c0>
 800156c:	7b63      	ldrb	r3, [r4, #13]
 800156e:	1829      	adds	r1, r5, r0
 8001570:	0409      	lsls	r1, r1, #16
 8001572:	041b      	lsls	r3, r3, #16
 8001574:	0c09      	lsrs	r1, r1, #16
 8001576:	4319      	orrs	r1, r3
 8001578:	2001      	movs	r0, #1
 800157a:	4b09      	ldr	r3, [pc, #36]	; (80015a0 <CPUCE+0x1380>)
 800157c:	78e6      	ldrb	r6, [r4, #3]
 800157e:	f003 fae9 	bl	8004b54 <CPU+0x14c0>
 8001582:	4b0b      	ldr	r3, [pc, #44]	; (80015b0 <CPUCE+0x1390>)
 8001584:	0001      	movs	r1, r0
 8001586:	0030      	movs	r0, r6
 8001588:	f003 fae4 	bl	8004b54 <CPU+0x14c0>
 800158c:	70e0      	strb	r0, [r4, #3]
 800158e:	2010      	movs	r0, #16
 8001590:	f7fe fe61 	bl	8000256 <CPUCE+0x36>
 8001594:	08005511 	stmdaeq	r0, {r0, r4, r8, sl, ip, lr}
 8001598:	080054f5 	stmdaeq	r0, {r0, r2, r4, r5, r6, r7, sl, ip, lr}
 800159c:	080053e1 	stmdaeq	r0, {r0, r5, r6, r7, r8, r9, ip, lr}
 80015a0:	08004b5d 	stmdaeq	r0, {r0, r2, r3, r4, r6, r8, r9, fp, lr}
 80015a4:	08004ef9 	stmdaeq	r0, {r0, r3, r4, r5, r6, r7, r9, sl, fp, lr}
 80015a8:	0800538d 	stmdaeq	r0, {r0, r2, r3, r7, r8, r9, ip, lr}
 80015ac:	08005125 	stmdaeq	r0, {r0, r2, r5, r8, ip, lr}
 80015b0:	08004ffd 	stmdaeq	r0, {r0, r2, r3, r4, r5, r6, r7, r8, r9, sl, fp, lr}
 80015b4:	08004be9 	stmdaeq	r0, {r0, r3, r5, r6, r7, r8, r9, fp, lr}
 80015b8:	f003 face 	bl	8004b58 <CPU+0x14c4>
 80015bc:	0600      	lsls	r0, r0, #24
 80015be:	4bf2      	ldr	r3, [pc, #968]	; (8001988 <CPUCE+0x1768>)
 80015c0:	1600      	asrs	r0, r0, #24
 80015c2:	8965      	ldrh	r5, [r4, #10]
 80015c4:	f003 fac6 	bl	8004b54 <CPU+0x14c0>
 80015c8:	7a63      	ldrb	r3, [r4, #9]
 80015ca:	1829      	adds	r1, r5, r0
 80015cc:	0409      	lsls	r1, r1, #16
 80015ce:	041b      	lsls	r3, r3, #16
 80015d0:	0c09      	lsrs	r1, r1, #16
 80015d2:	4319      	orrs	r1, r3
 80015d4:	2001      	movs	r0, #1
 80015d6:	4bed      	ldr	r3, [pc, #948]	; (800198c <CPUCE+0x176c>)
 80015d8:	78e6      	ldrb	r6, [r4, #3]
 80015da:	f003 fabb 	bl	8004b54 <CPU+0x14c0>
 80015de:	4bec      	ldr	r3, [pc, #944]	; (8001990 <CPUCE+0x1770>)
 80015e0:	0001      	movs	r1, r0
 80015e2:	0030      	movs	r0, r6
 80015e4:	f003 fab6 	bl	8004b54 <CPU+0x14c0>
 80015e8:	70e0      	strb	r0, [r4, #3]
 80015ea:	2010      	movs	r0, #16
 80015ec:	f7fe fe33 	bl	8000256 <CPUCE+0x36>
 80015f0:	6865      	ldr	r5, [r4, #4]
 80015f2:	4ee6      	ldr	r6, [pc, #920]	; (800198c <CPUCE+0x176c>)
 80015f4:	0029      	movs	r1, r5
 80015f6:	2001      	movs	r0, #1
 80015f8:	f003 faaf 	bl	8004b5a <CPU+0x14c6>
 80015fc:	68e1      	ldr	r1, [r4, #12]
 80015fe:	0007      	movs	r7, r0
 8001600:	2001      	movs	r0, #1
 8001602:	f003 faaa 	bl	8004b5a <CPU+0x14c6>
 8001606:	4be3      	ldr	r3, [pc, #908]	; (8001994 <CPUCE+0x1774>)
 8001608:	0001      	movs	r1, r0
 800160a:	0038      	movs	r0, r7
 800160c:	f003 faa2 	bl	8004b54 <CPU+0x14c0>
 8001610:	0029      	movs	r1, r5
 8001612:	0002      	movs	r2, r0
 8001614:	4be0      	ldr	r3, [pc, #896]	; (8001998 <CPUCE+0x1778>)
 8001616:	2001      	movs	r0, #1
 8001618:	f003 fa9c 	bl	8004b54 <CPU+0x14c0>
 800161c:	2014      	movs	r0, #20
 800161e:	f7fe fe1a 	bl	8000256 <CPUCE+0x36>
 8001622:	6865      	ldr	r5, [r4, #4]
 8001624:	4ed9      	ldr	r6, [pc, #868]	; (800198c <CPUCE+0x176c>)
 8001626:	0029      	movs	r1, r5
 8001628:	2001      	movs	r0, #1
 800162a:	f003 fa96 	bl	8004b5a <CPU+0x14c6>
 800162e:	68a1      	ldr	r1, [r4, #8]
 8001630:	0007      	movs	r7, r0
 8001632:	2001      	movs	r0, #1
 8001634:	f003 fa91 	bl	8004b5a <CPU+0x14c6>
 8001638:	4bd6      	ldr	r3, [pc, #856]	; (8001994 <CPUCE+0x1774>)
 800163a:	0001      	movs	r1, r0
 800163c:	0038      	movs	r0, r7
 800163e:	f003 fa89 	bl	8004b54 <CPU+0x14c0>
 8001642:	0029      	movs	r1, r5
 8001644:	0002      	movs	r2, r0
 8001646:	4bd4      	ldr	r3, [pc, #848]	; (8001998 <CPUCE+0x1778>)
 8001648:	2001      	movs	r0, #1
 800164a:	f003 fa83 	bl	8004b54 <CPU+0x14c0>
 800164e:	2014      	movs	r0, #20
 8001650:	f7fe fe01 	bl	8000256 <CPUCE+0x36>
 8001654:	f003 fa80 	bl	8004b58 <CPU+0x14c4>
 8001658:	0005      	movs	r5, r0
 800165a:	6864      	ldr	r4, [r4, #4]
 800165c:	4bcb      	ldr	r3, [pc, #812]	; (800198c <CPUCE+0x176c>)
 800165e:	0021      	movs	r1, r4
 8001660:	2001      	movs	r0, #1
 8001662:	f003 fa77 	bl	8004b54 <CPU+0x14c0>
 8001666:	0029      	movs	r1, r5
 8001668:	4bca      	ldr	r3, [pc, #808]	; (8001994 <CPUCE+0x1774>)
 800166a:	f003 fa73 	bl	8004b54 <CPU+0x14c0>
 800166e:	0021      	movs	r1, r4
 8001670:	0002      	movs	r2, r0
 8001672:	4bc9      	ldr	r3, [pc, #804]	; (8001998 <CPUCE+0x1778>)
 8001674:	2001      	movs	r0, #1
 8001676:	f003 fa6d 	bl	8004b54 <CPU+0x14c0>
 800167a:	2014      	movs	r0, #20
 800167c:	f7fe fdeb 	bl	8000256 <CPUCE+0x36>
 8001680:	6865      	ldr	r5, [r4, #4]
 8001682:	4bc2      	ldr	r3, [pc, #776]	; (800198c <CPUCE+0x176c>)
 8001684:	0029      	movs	r1, r5
 8001686:	2001      	movs	r0, #1
 8001688:	f003 fa64 	bl	8004b54 <CPU+0x14c0>
 800168c:	78e1      	ldrb	r1, [r4, #3]
 800168e:	4bc1      	ldr	r3, [pc, #772]	; (8001994 <CPUCE+0x1774>)
 8001690:	f003 fa60 	bl	8004b54 <CPU+0x14c0>
 8001694:	0029      	movs	r1, r5
 8001696:	0002      	movs	r2, r0
 8001698:	4bbf      	ldr	r3, [pc, #764]	; (8001998 <CPUCE+0x1778>)
 800169a:	2001      	movs	r0, #1
 800169c:	f003 fa5a 	bl	8004b54 <CPU+0x14c0>
 80016a0:	2010      	movs	r0, #16
 80016a2:	f7fe fdd8 	bl	8000256 <CPUCE+0x36>
 80016a6:	2007      	movs	r0, #7
 80016a8:	4bb7      	ldr	r3, [pc, #732]	; (8001988 <CPUCE+0x1768>)
 80016aa:	5620      	ldrsb	r0, [r4, r0]
 80016ac:	89e5      	ldrh	r5, [r4, #14]
 80016ae:	f003 fa51 	bl	8004b54 <CPU+0x14c0>
 80016b2:	7b63      	ldrb	r3, [r4, #13]
 80016b4:	1829      	adds	r1, r5, r0
 80016b6:	0409      	lsls	r1, r1, #16
 80016b8:	041b      	lsls	r3, r3, #16
 80016ba:	0c09      	lsrs	r1, r1, #16
 80016bc:	4319      	orrs	r1, r3
 80016be:	2001      	movs	r0, #1
 80016c0:	4bb2      	ldr	r3, [pc, #712]	; (800198c <CPUCE+0x176c>)
 80016c2:	78e6      	ldrb	r6, [r4, #3]
 80016c4:	f003 fa46 	bl	8004b54 <CPU+0x14c0>
 80016c8:	4bb2      	ldr	r3, [pc, #712]	; (8001994 <CPUCE+0x1774>)
 80016ca:	0001      	movs	r1, r0
 80016cc:	0030      	movs	r0, r6
 80016ce:	f003 fa41 	bl	8004b54 <CPU+0x14c0>
 80016d2:	70e0      	strb	r0, [r4, #3]
 80016d4:	2010      	movs	r0, #16
 80016d6:	f7fe fdbe 	bl	8000256 <CPUCE+0x36>
 80016da:	2007      	movs	r0, #7
 80016dc:	4baa      	ldr	r3, [pc, #680]	; (8001988 <CPUCE+0x1768>)
 80016de:	5620      	ldrsb	r0, [r4, r0]
 80016e0:	8965      	ldrh	r5, [r4, #10]
 80016e2:	f003 fa37 	bl	8004b54 <CPU+0x14c0>
 80016e6:	7a63      	ldrb	r3, [r4, #9]
 80016e8:	1829      	adds	r1, r5, r0
 80016ea:	0409      	lsls	r1, r1, #16
 80016ec:	041b      	lsls	r3, r3, #16
 80016ee:	0c09      	lsrs	r1, r1, #16
 80016f0:	4319      	orrs	r1, r3
 80016f2:	2001      	movs	r0, #1
 80016f4:	4ba5      	ldr	r3, [pc, #660]	; (800198c <CPUCE+0x176c>)
 80016f6:	78e6      	ldrb	r6, [r4, #3]
 80016f8:	f003 fa2c 	bl	8004b54 <CPU+0x14c0>
 80016fc:	4ba5      	ldr	r3, [pc, #660]	; (8001994 <CPUCE+0x1774>)
 80016fe:	0001      	movs	r1, r0
 8001700:	0030      	movs	r0, r6
 8001702:	f003 fa27 	bl	8004b54 <CPU+0x14c0>
 8001706:	70e0      	strb	r0, [r4, #3]
 8001708:	2010      	movs	r0, #16
 800170a:	f7fe fda4 	bl	8000256 <CPUCE+0x36>
 800170e:	f003 fa23 	bl	8004b58 <CPU+0x14c4>
 8001712:	0600      	lsls	r0, r0, #24
 8001714:	4b9c      	ldr	r3, [pc, #624]	; (8001988 <CPUCE+0x1768>)
 8001716:	1600      	asrs	r0, r0, #24
 8001718:	89e5      	ldrh	r5, [r4, #14]
 800171a:	f003 fa1b 	bl	8004b54 <CPU+0x14c0>
 800171e:	7b63      	ldrb	r3, [r4, #13]
 8001720:	1829      	adds	r1, r5, r0
 8001722:	0409      	lsls	r1, r1, #16
 8001724:	041b      	lsls	r3, r3, #16
 8001726:	0c09      	lsrs	r1, r1, #16
 8001728:	4319      	orrs	r1, r3
 800172a:	2001      	movs	r0, #1
 800172c:	4b97      	ldr	r3, [pc, #604]	; (800198c <CPUCE+0x176c>)
 800172e:	78e6      	ldrb	r6, [r4, #3]
 8001730:	f003 fa10 	bl	8004b54 <CPU+0x14c0>
 8001734:	4b99      	ldr	r3, [pc, #612]	; (800199c <CPUCE+0x177c>)
 8001736:	0001      	movs	r1, r0
 8001738:	0030      	movs	r0, r6
 800173a:	f003 fa0b 	bl	8004b54 <CPU+0x14c0>
 800173e:	70e0      	strb	r0, [r4, #3]
 8001740:	2010      	movs	r0, #16
 8001742:	f7fe fd88 	bl	8000256 <CPUCE+0x36>
 8001746:	f003 fa07 	bl	8004b58 <CPU+0x14c4>
 800174a:	0600      	lsls	r0, r0, #24
 800174c:	4b8e      	ldr	r3, [pc, #568]	; (8001988 <CPUCE+0x1768>)
 800174e:	1600      	asrs	r0, r0, #24
 8001750:	8965      	ldrh	r5, [r4, #10]
 8001752:	f003 f9ff 	bl	8004b54 <CPU+0x14c0>
 8001756:	7a63      	ldrb	r3, [r4, #9]
 8001758:	1829      	adds	r1, r5, r0
 800175a:	0409      	lsls	r1, r1, #16
 800175c:	041b      	lsls	r3, r3, #16
 800175e:	0c09      	lsrs	r1, r1, #16
 8001760:	4319      	orrs	r1, r3
 8001762:	2001      	movs	r0, #1
 8001764:	4b89      	ldr	r3, [pc, #548]	; (800198c <CPUCE+0x176c>)
 8001766:	78e6      	ldrb	r6, [r4, #3]
 8001768:	f003 f9f4 	bl	8004b54 <CPU+0x14c0>
 800176c:	4b8b      	ldr	r3, [pc, #556]	; (800199c <CPUCE+0x177c>)
 800176e:	0001      	movs	r1, r0
 8001770:	0030      	movs	r0, r6
 8001772:	f003 f9ef 	bl	8004b54 <CPU+0x14c0>
 8001776:	70e0      	strb	r0, [r4, #3]
 8001778:	2010      	movs	r0, #16
 800177a:	f7fe fd6c 	bl	8000256 <CPUCE+0x36>
 800177e:	6865      	ldr	r5, [r4, #4]
 8001780:	4e82      	ldr	r6, [pc, #520]	; (800198c <CPUCE+0x176c>)
 8001782:	0029      	movs	r1, r5
 8001784:	2001      	movs	r0, #1
 8001786:	f003 f9e8 	bl	8004b5a <CPU+0x14c6>
 800178a:	68e1      	ldr	r1, [r4, #12]
 800178c:	0007      	movs	r7, r0
 800178e:	2001      	movs	r0, #1
 8001790:	f003 f9e3 	bl	8004b5a <CPU+0x14c6>
 8001794:	4b82      	ldr	r3, [pc, #520]	; (80019a0 <CPUCE+0x1780>)
 8001796:	0001      	movs	r1, r0
 8001798:	0038      	movs	r0, r7
 800179a:	f003 f9db 	bl	8004b54 <CPU+0x14c0>
 800179e:	0029      	movs	r1, r5
 80017a0:	0002      	movs	r2, r0
 80017a2:	4b7d      	ldr	r3, [pc, #500]	; (8001998 <CPUCE+0x1778>)
 80017a4:	2001      	movs	r0, #1
 80017a6:	f003 f9d5 	bl	8004b54 <CPU+0x14c0>
 80017aa:	2014      	movs	r0, #20
 80017ac:	f7fe fd53 	bl	8000256 <CPUCE+0x36>
 80017b0:	6865      	ldr	r5, [r4, #4]
 80017b2:	4e76      	ldr	r6, [pc, #472]	; (800198c <CPUCE+0x176c>)
 80017b4:	0029      	movs	r1, r5
 80017b6:	2001      	movs	r0, #1
 80017b8:	f003 f9cf 	bl	8004b5a <CPU+0x14c6>
 80017bc:	68a1      	ldr	r1, [r4, #8]
 80017be:	0007      	movs	r7, r0
 80017c0:	2001      	movs	r0, #1
 80017c2:	f003 f9ca 	bl	8004b5a <CPU+0x14c6>
 80017c6:	4b76      	ldr	r3, [pc, #472]	; (80019a0 <CPUCE+0x1780>)
 80017c8:	0001      	movs	r1, r0
 80017ca:	0038      	movs	r0, r7
 80017cc:	f003 f9c2 	bl	8004b54 <CPU+0x14c0>
 80017d0:	0029      	movs	r1, r5
 80017d2:	0002      	movs	r2, r0
 80017d4:	4b70      	ldr	r3, [pc, #448]	; (8001998 <CPUCE+0x1778>)
 80017d6:	2001      	movs	r0, #1
 80017d8:	f003 f9bc 	bl	8004b54 <CPU+0x14c0>
 80017dc:	2014      	movs	r0, #20
 80017de:	f7fe fd3a 	bl	8000256 <CPUCE+0x36>
 80017e2:	f003 f9b9 	bl	8004b58 <CPU+0x14c4>
 80017e6:	0005      	movs	r5, r0
 80017e8:	6864      	ldr	r4, [r4, #4]
 80017ea:	4b68      	ldr	r3, [pc, #416]	; (800198c <CPUCE+0x176c>)
 80017ec:	0021      	movs	r1, r4
 80017ee:	2001      	movs	r0, #1
 80017f0:	f003 f9b0 	bl	8004b54 <CPU+0x14c0>
 80017f4:	0029      	movs	r1, r5
 80017f6:	4b6a      	ldr	r3, [pc, #424]	; (80019a0 <CPUCE+0x1780>)
 80017f8:	f003 f9ac 	bl	8004b54 <CPU+0x14c0>
 80017fc:	0021      	movs	r1, r4
 80017fe:	0002      	movs	r2, r0
 8001800:	4b65      	ldr	r3, [pc, #404]	; (8001998 <CPUCE+0x1778>)
 8001802:	2001      	movs	r0, #1
 8001804:	f003 f9a6 	bl	8004b54 <CPU+0x14c0>
 8001808:	2014      	movs	r0, #20
 800180a:	f7fe fd24 	bl	8000256 <CPUCE+0x36>
 800180e:	6865      	ldr	r5, [r4, #4]
 8001810:	4b5e      	ldr	r3, [pc, #376]	; (800198c <CPUCE+0x176c>)
 8001812:	0029      	movs	r1, r5
 8001814:	2001      	movs	r0, #1
 8001816:	f003 f99d 	bl	8004b54 <CPU+0x14c0>
 800181a:	78e1      	ldrb	r1, [r4, #3]
 800181c:	4b60      	ldr	r3, [pc, #384]	; (80019a0 <CPUCE+0x1780>)
 800181e:	f003 f999 	bl	8004b54 <CPU+0x14c0>
 8001822:	0029      	movs	r1, r5
 8001824:	0002      	movs	r2, r0
 8001826:	4b5c      	ldr	r3, [pc, #368]	; (8001998 <CPUCE+0x1778>)
 8001828:	2001      	movs	r0, #1
 800182a:	f003 f993 	bl	8004b54 <CPU+0x14c0>
 800182e:	2010      	movs	r0, #16
 8001830:	f7fe fd11 	bl	8000256 <CPUCE+0x36>
 8001834:	2007      	movs	r0, #7
 8001836:	4b54      	ldr	r3, [pc, #336]	; (8001988 <CPUCE+0x1768>)
 8001838:	5620      	ldrsb	r0, [r4, r0]
 800183a:	89e5      	ldrh	r5, [r4, #14]
 800183c:	f003 f98a 	bl	8004b54 <CPU+0x14c0>
 8001840:	7b63      	ldrb	r3, [r4, #13]
 8001842:	1829      	adds	r1, r5, r0
 8001844:	0409      	lsls	r1, r1, #16
 8001846:	041b      	lsls	r3, r3, #16
 8001848:	0c09      	lsrs	r1, r1, #16
 800184a:	4319      	orrs	r1, r3
 800184c:	2001      	movs	r0, #1
 800184e:	4b4f      	ldr	r3, [pc, #316]	; (800198c <CPUCE+0x176c>)
 8001850:	78e6      	ldrb	r6, [r4, #3]
 8001852:	f003 f97f 	bl	8004b54 <CPU+0x14c0>
 8001856:	4b52      	ldr	r3, [pc, #328]	; (80019a0 <CPUCE+0x1780>)
 8001858:	0001      	movs	r1, r0
 800185a:	0030      	movs	r0, r6
 800185c:	f003 f97a 	bl	8004b54 <CPU+0x14c0>
 8001860:	70e0      	strb	r0, [r4, #3]
 8001862:	2010      	movs	r0, #16
 8001864:	f7fe fcf7 	bl	8000256 <CPUCE+0x36>
 8001868:	2007      	movs	r0, #7
 800186a:	4b47      	ldr	r3, [pc, #284]	; (8001988 <CPUCE+0x1768>)
 800186c:	5620      	ldrsb	r0, [r4, r0]
 800186e:	8965      	ldrh	r5, [r4, #10]
 8001870:	f003 f970 	bl	8004b54 <CPU+0x14c0>
 8001874:	7a63      	ldrb	r3, [r4, #9]
 8001876:	1829      	adds	r1, r5, r0
 8001878:	0409      	lsls	r1, r1, #16
 800187a:	041b      	lsls	r3, r3, #16
 800187c:	0c09      	lsrs	r1, r1, #16
 800187e:	4319      	orrs	r1, r3
 8001880:	2001      	movs	r0, #1
 8001882:	4b42      	ldr	r3, [pc, #264]	; (800198c <CPUCE+0x176c>)
 8001884:	78e6      	ldrb	r6, [r4, #3]
 8001886:	f003 f965 	bl	8004b54 <CPU+0x14c0>
 800188a:	4b45      	ldr	r3, [pc, #276]	; (80019a0 <CPUCE+0x1780>)
 800188c:	0001      	movs	r1, r0
 800188e:	0030      	movs	r0, r6
 8001890:	f003 f960 	bl	8004b54 <CPU+0x14c0>
 8001894:	70e0      	strb	r0, [r4, #3]
 8001896:	2010      	movs	r0, #16
 8001898:	f7fe fcdd 	bl	8000256 <CPUCE+0x36>
 800189c:	f003 f95c 	bl	8004b58 <CPU+0x14c4>
 80018a0:	0005      	movs	r5, r0
 80018a2:	6864      	ldr	r4, [r4, #4]
 80018a4:	4b39      	ldr	r3, [pc, #228]	; (800198c <CPUCE+0x176c>)
 80018a6:	0021      	movs	r1, r4
 80018a8:	2001      	movs	r0, #1
 80018aa:	f003 f953 	bl	8004b54 <CPU+0x14c0>
 80018ae:	0029      	movs	r1, r5
 80018b0:	4b3a      	ldr	r3, [pc, #232]	; (800199c <CPUCE+0x177c>)
 80018b2:	f003 f94f 	bl	8004b54 <CPU+0x14c0>
 80018b6:	0021      	movs	r1, r4
 80018b8:	0002      	movs	r2, r0
 80018ba:	4b37      	ldr	r3, [pc, #220]	; (8001998 <CPUCE+0x1778>)
 80018bc:	2001      	movs	r0, #1
 80018be:	f003 f949 	bl	8004b54 <CPU+0x14c0>
 80018c2:	2014      	movs	r0, #20
 80018c4:	f7fe fcc7 	bl	8000256 <CPUCE+0x36>
 80018c8:	6865      	ldr	r5, [r4, #4]
 80018ca:	4b30      	ldr	r3, [pc, #192]	; (800198c <CPUCE+0x176c>)
 80018cc:	0029      	movs	r1, r5
 80018ce:	2001      	movs	r0, #1
 80018d0:	f003 f940 	bl	8004b54 <CPU+0x14c0>
 80018d4:	78e1      	ldrb	r1, [r4, #3]
 80018d6:	4b31      	ldr	r3, [pc, #196]	; (800199c <CPUCE+0x177c>)
 80018d8:	f003 f93c 	bl	8004b54 <CPU+0x14c0>
 80018dc:	0029      	movs	r1, r5
 80018de:	0002      	movs	r2, r0
 80018e0:	4b2d      	ldr	r3, [pc, #180]	; (8001998 <CPUCE+0x1778>)
 80018e2:	2001      	movs	r0, #1
 80018e4:	f003 f936 	bl	8004b54 <CPU+0x14c0>
 80018e8:	2010      	movs	r0, #16
 80018ea:	f7fe fcb4 	bl	8000256 <CPUCE+0x36>
 80018ee:	2007      	movs	r0, #7
 80018f0:	4b25      	ldr	r3, [pc, #148]	; (8001988 <CPUCE+0x1768>)
 80018f2:	5620      	ldrsb	r0, [r4, r0]
 80018f4:	89e5      	ldrh	r5, [r4, #14]
 80018f6:	f003 f92d 	bl	8004b54 <CPU+0x14c0>
 80018fa:	7b63      	ldrb	r3, [r4, #13]
 80018fc:	1829      	adds	r1, r5, r0
 80018fe:	0409      	lsls	r1, r1, #16
 8001900:	041b      	lsls	r3, r3, #16
 8001902:	0c09      	lsrs	r1, r1, #16
 8001904:	4319      	orrs	r1, r3
 8001906:	2001      	movs	r0, #1
 8001908:	4b20      	ldr	r3, [pc, #128]	; (800198c <CPUCE+0x176c>)
 800190a:	78e6      	ldrb	r6, [r4, #3]
 800190c:	f003 f922 	bl	8004b54 <CPU+0x14c0>
 8001910:	4b22      	ldr	r3, [pc, #136]	; (800199c <CPUCE+0x177c>)
 8001912:	0001      	movs	r1, r0
 8001914:	0030      	movs	r0, r6
 8001916:	f003 f91d 	bl	8004b54 <CPU+0x14c0>
 800191a:	70e0      	strb	r0, [r4, #3]
 800191c:	2010      	movs	r0, #16
 800191e:	f7fe fc9a 	bl	8000256 <CPUCE+0x36>
 8001922:	2007      	movs	r0, #7
 8001924:	4b18      	ldr	r3, [pc, #96]	; (8001988 <CPUCE+0x1768>)
 8001926:	5620      	ldrsb	r0, [r4, r0]
 8001928:	8965      	ldrh	r5, [r4, #10]
 800192a:	f003 f913 	bl	8004b54 <CPU+0x14c0>
 800192e:	7a63      	ldrb	r3, [r4, #9]
 8001930:	1829      	adds	r1, r5, r0
 8001932:	0409      	lsls	r1, r1, #16
 8001934:	041b      	lsls	r3, r3, #16
 8001936:	0c09      	lsrs	r1, r1, #16
 8001938:	4319      	orrs	r1, r3
 800193a:	2001      	movs	r0, #1
 800193c:	4b13      	ldr	r3, [pc, #76]	; (800198c <CPUCE+0x176c>)
 800193e:	78e6      	ldrb	r6, [r4, #3]
 8001940:	f003 f908 	bl	8004b54 <CPU+0x14c0>
 8001944:	4b15      	ldr	r3, [pc, #84]	; (800199c <CPUCE+0x177c>)
 8001946:	0001      	movs	r1, r0
 8001948:	0030      	movs	r0, r6
 800194a:	f003 f903 	bl	8004b54 <CPU+0x14c0>
 800194e:	70e0      	strb	r0, [r4, #3]
 8001950:	2010      	movs	r0, #16
 8001952:	f7fe fc80 	bl	8000256 <CPUCE+0x36>
 8001956:	6865      	ldr	r5, [r4, #4]
 8001958:	4e0c      	ldr	r6, [pc, #48]	; (800198c <CPUCE+0x176c>)
 800195a:	0029      	movs	r1, r5
 800195c:	2001      	movs	r0, #1
 800195e:	f003 f8fc 	bl	8004b5a <CPU+0x14c6>
 8001962:	68e1      	ldr	r1, [r4, #12]
 8001964:	0007      	movs	r7, r0
 8001966:	2001      	movs	r0, #1
 8001968:	f003 f8f7 	bl	8004b5a <CPU+0x14c6>
 800196c:	4b0b      	ldr	r3, [pc, #44]	; (800199c <CPUCE+0x177c>)
 800196e:	0001      	movs	r1, r0
 8001970:	0038      	movs	r0, r7
 8001972:	f003 f8ef 	bl	8004b54 <CPU+0x14c0>
 8001976:	0029      	movs	r1, r5
 8001978:	0002      	movs	r2, r0
 800197a:	4b07      	ldr	r3, [pc, #28]	; (8001998 <CPUCE+0x1778>)
 800197c:	2001      	movs	r0, #1
 800197e:	f003 f8e9 	bl	8004b54 <CPU+0x14c0>
 8001982:	2014      	movs	r0, #20
 8001984:	f7fe fc67 	bl	8000256 <CPUCE+0x36>
 8001988:	08005511 	stmdaeq	r0, {r0, r4, r8, sl, ip, lr}
 800198c:	08004b5d 	stmdaeq	r0, {r0, r2, r3, r4, r6, r8, r9, fp, lr}
 8001990:	08004ffd 	stmdaeq	r0, {r0, r2, r3, r4, r5, r6, r7, r8, r9, sl, fp, lr}
 8001994:	08004ef9 	stmdaeq	r0, {r0, r3, r4, r5, r6, r7, r9, sl, fp, lr}
 8001998:	08004be9 	stmdaeq	r0, {r0, r3, r5, r6, r7, r8, r9, fp, lr}
 800199c:	08005239 	stmdaeq	r0, {r0, r3, r4, r5, r9, ip, lr}
 80019a0:	08005125 	stmdaeq	r0, {r0, r2, r5, r8, ip, lr}
 80019a4:	6865      	ldr	r5, [r4, #4]
 80019a6:	4eeb      	ldr	r6, [pc, #940]	; (8001d54 <CPUCE+0x1b34>)
 80019a8:	0029      	movs	r1, r5
 80019aa:	2001      	movs	r0, #1
 80019ac:	f003 f8d5 	bl	8004b5a <CPU+0x14c6>
 80019b0:	68a1      	ldr	r1, [r4, #8]
 80019b2:	0007      	movs	r7, r0
 80019b4:	2001      	movs	r0, #1
 80019b6:	f003 f8d0 	bl	8004b5a <CPU+0x14c6>
 80019ba:	4be7      	ldr	r3, [pc, #924]	; (8001d58 <CPUCE+0x1b38>)
 80019bc:	0001      	movs	r1, r0
 80019be:	0038      	movs	r0, r7
 80019c0:	f003 f8c8 	bl	8004b54 <CPU+0x14c0>
 80019c4:	0029      	movs	r1, r5
 80019c6:	0002      	movs	r2, r0
 80019c8:	4be4      	ldr	r3, [pc, #912]	; (8001d5c <CPUCE+0x1b3c>)
 80019ca:	2001      	movs	r0, #1
 80019cc:	f003 f8c2 	bl	8004b54 <CPU+0x14c0>
 80019d0:	2014      	movs	r0, #20
 80019d2:	f7fe fc40 	bl	8000256 <CPUCE+0x36>
 80019d6:	f003 f8bf 	bl	8004b58 <CPU+0x14c4>
 80019da:	0600      	lsls	r0, r0, #24
 80019dc:	4be0      	ldr	r3, [pc, #896]	; (8001d60 <CPUCE+0x1b40>)
 80019de:	1600      	asrs	r0, r0, #24
 80019e0:	8965      	ldrh	r5, [r4, #10]
 80019e2:	f003 f8b7 	bl	8004b54 <CPU+0x14c0>
 80019e6:	7a63      	ldrb	r3, [r4, #9]
 80019e8:	1829      	adds	r1, r5, r0
 80019ea:	0409      	lsls	r1, r1, #16
 80019ec:	041b      	lsls	r3, r3, #16
 80019ee:	0c09      	lsrs	r1, r1, #16
 80019f0:	4319      	orrs	r1, r3
 80019f2:	2001      	movs	r0, #1
 80019f4:	4bd7      	ldr	r3, [pc, #860]	; (8001d54 <CPUCE+0x1b34>)
 80019f6:	78e6      	ldrb	r6, [r4, #3]
 80019f8:	f003 f8ac 	bl	8004b54 <CPU+0x14c0>
 80019fc:	4bd9      	ldr	r3, [pc, #868]	; (8001d64 <CPUCE+0x1b44>)
 80019fe:	0001      	movs	r1, r0
 8001a00:	0030      	movs	r0, r6
 8001a02:	f003 f8a7 	bl	8004b54 <CPU+0x14c0>
 8001a06:	70e0      	strb	r0, [r4, #3]
 8001a08:	2010      	movs	r0, #16
 8001a0a:	f7fe fc24 	bl	8000256 <CPUCE+0x36>
 8001a0e:	f003 f8a3 	bl	8004b58 <CPU+0x14c4>
 8001a12:	7fa3      	ldrb	r3, [r4, #30]
 8001a14:	075b      	lsls	r3, r3, #29
 8001a16:	d401      	bmi.n	8001a1c <CPUCE+0x17fc>
 8001a18:	f7fe fc37 	bl	800028a <CPUCE+0x6a>
 8001a1c:	0600      	lsls	r0, r0, #24
 8001a1e:	4bd0      	ldr	r3, [pc, #832]	; (8001d60 <CPUCE+0x1b40>)
 8001a20:	1600      	asrs	r0, r0, #24
 8001a22:	f003 f897 	bl	8004b54 <CPU+0x14c0>
 8001a26:	4bd0      	ldr	r3, [pc, #832]	; (8001d68 <CPUCE+0x1b48>)
 8001a28:	f003 f894 	bl	8004b54 <CPU+0x14c0>
 8001a2c:	200c      	movs	r0, #12
 8001a2e:	f7fe fc12 	bl	8000256 <CPUCE+0x36>
 8001a32:	f003 f891 	bl	8004b58 <CPU+0x14c4>
 8001a36:	7fa3      	ldrb	r3, [r4, #30]
 8001a38:	2401      	movs	r4, #1
 8001a3a:	2201      	movs	r2, #1
 8001a3c:	0899      	lsrs	r1, r3, #2
 8001a3e:	08db      	lsrs	r3, r3, #3
 8001a40:	4063      	eors	r3, r4
 8001a42:	4011      	ands	r1, r2
 8001a44:	4013      	ands	r3, r2
 8001a46:	4299      	cmp	r1, r3
 8001a48:	d101      	bne.n	8001a4e <CPUCE+0x182e>
 8001a4a:	f7fe fc1e 	bl	800028a <CPUCE+0x6a>
 8001a4e:	0600      	lsls	r0, r0, #24
 8001a50:	4bc3      	ldr	r3, [pc, #780]	; (8001d60 <CPUCE+0x1b40>)
 8001a52:	1600      	asrs	r0, r0, #24
 8001a54:	f003 f87e 	bl	8004b54 <CPU+0x14c0>
 8001a58:	4bc3      	ldr	r3, [pc, #780]	; (8001d68 <CPUCE+0x1b48>)
 8001a5a:	f003 f87b 	bl	8004b54 <CPU+0x14c0>
 8001a5e:	200c      	movs	r0, #12
 8001a60:	f7fe fbf9 	bl	8000256 <CPUCE+0x36>
 8001a64:	f003 f878 	bl	8004b58 <CPU+0x14c4>
 8001a68:	2101      	movs	r1, #1
 8001a6a:	7fa2      	ldrb	r2, [r4, #30]
 8001a6c:	0893      	lsrs	r3, r2, #2
 8001a6e:	404b      	eors	r3, r1
 8001a70:	2101      	movs	r1, #1
 8001a72:	08d4      	lsrs	r4, r2, #3
 8001a74:	400b      	ands	r3, r1
 8001a76:	400c      	ands	r4, r1
 8001a78:	42a3      	cmp	r3, r4
 8001a7a:	d101      	bne.n	8001a80 <CPUCE+0x1860>
 8001a7c:	f7fe fc05 	bl	800028a <CPUCE+0x6a>
 8001a80:	4211      	tst	r1, r2
 8001a82:	d001      	beq.n	8001a88 <CPUCE+0x1868>
 8001a84:	f7fe fc01 	bl	800028a <CPUCE+0x6a>
 8001a88:	0600      	lsls	r0, r0, #24
 8001a8a:	4bb5      	ldr	r3, [pc, #724]	; (8001d60 <CPUCE+0x1b40>)
 8001a8c:	1600      	asrs	r0, r0, #24
 8001a8e:	f003 f861 	bl	8004b54 <CPU+0x14c0>
 8001a92:	4bb5      	ldr	r3, [pc, #724]	; (8001d68 <CPUCE+0x1b48>)
 8001a94:	f003 f85e 	bl	8004b54 <CPU+0x14c0>
 8001a98:	200c      	movs	r0, #12
 8001a9a:	f7fe fbdc 	bl	8000256 <CPUCE+0x36>
 8001a9e:	f003 f85b 	bl	8004b58 <CPU+0x14c4>
 8001aa2:	2501      	movs	r5, #1
 8001aa4:	7fa1      	ldrb	r1, [r4, #30]
 8001aa6:	2401      	movs	r4, #1
 8001aa8:	088a      	lsrs	r2, r1, #2
 8001aaa:	08cb      	lsrs	r3, r1, #3
 8001aac:	406a      	eors	r2, r5
 8001aae:	406b      	eors	r3, r5
 8001ab0:	4022      	ands	r2, r4
 8001ab2:	4023      	ands	r3, r4
 8001ab4:	429a      	cmp	r2, r3
 8001ab6:	d103      	bne.n	8001ac0 <CPUCE+0x18a0>
 8001ab8:	420c      	tst	r4, r1
 8001aba:	d101      	bne.n	8001ac0 <CPUCE+0x18a0>
 8001abc:	f7fe fbe5 	bl	800028a <CPUCE+0x6a>
 8001ac0:	0600      	lsls	r0, r0, #24
 8001ac2:	4ba7      	ldr	r3, [pc, #668]	; (8001d60 <CPUCE+0x1b40>)
 8001ac4:	1600      	asrs	r0, r0, #24
 8001ac6:	f003 f845 	bl	8004b54 <CPU+0x14c0>
 8001aca:	4ba7      	ldr	r3, [pc, #668]	; (8001d68 <CPUCE+0x1b48>)
 8001acc:	f003 f842 	bl	8004b54 <CPU+0x14c0>
 8001ad0:	200c      	movs	r0, #12
 8001ad2:	f7fe fbc0 	bl	8000256 <CPUCE+0x36>
 8001ad6:	f003 f83f 	bl	8004b58 <CPU+0x14c4>
 8001ada:	2301      	movs	r3, #1
 8001adc:	7fa2      	ldrb	r2, [r4, #30]
 8001ade:	0891      	lsrs	r1, r2, #2
 8001ae0:	08d2      	lsrs	r2, r2, #3
 8001ae2:	4019      	ands	r1, r3
 8001ae4:	4013      	ands	r3, r2
 8001ae6:	4299      	cmp	r1, r3
 8001ae8:	d101      	bne.n	8001aee <CPUCE+0x18ce>
 8001aea:	f7fe fbce 	bl	800028a <CPUCE+0x6a>
 8001aee:	0600      	lsls	r0, r0, #24
 8001af0:	4b9b      	ldr	r3, [pc, #620]	; (8001d60 <CPUCE+0x1b40>)
 8001af2:	1600      	asrs	r0, r0, #24
 8001af4:	f003 f82e 	bl	8004b54 <CPU+0x14c0>
 8001af8:	4b9b      	ldr	r3, [pc, #620]	; (8001d68 <CPUCE+0x1b48>)
 8001afa:	f003 f82b 	bl	8004b54 <CPU+0x14c0>
 8001afe:	200c      	movs	r0, #12
 8001b00:	f7fe fba9 	bl	8000256 <CPUCE+0x36>
 8001b04:	f003 f828 	bl	8004b58 <CPU+0x14c4>
 8001b08:	7fe3      	ldrb	r3, [r4, #31]
 8001b0a:	075b      	lsls	r3, r3, #29
 8001b0c:	d401      	bmi.n	8001b12 <CPUCE+0x18f2>
 8001b0e:	f7fe fbbc 	bl	800028a <CPUCE+0x6a>
 8001b12:	0600      	lsls	r0, r0, #24
 8001b14:	4b92      	ldr	r3, [pc, #584]	; (8001d60 <CPUCE+0x1b40>)
 8001b16:	1600      	asrs	r0, r0, #24
 8001b18:	f003 f81c 	bl	8004b54 <CPU+0x14c0>
 8001b1c:	4b93      	ldr	r3, [pc, #588]	; (8001d6c <CPUCE+0x1b4c>)
 8001b1e:	f003 f819 	bl	8004b54 <CPU+0x14c0>
 8001b22:	200c      	movs	r0, #12
 8001b24:	f7fe fb97 	bl	8000256 <CPUCE+0x36>
 8001b28:	f003 f816 	bl	8004b58 <CPU+0x14c4>
 8001b2c:	7fe3      	ldrb	r3, [r4, #31]
 8001b2e:	07db      	lsls	r3, r3, #31
 8001b30:	d401      	bmi.n	8001b36 <CPUCE+0x1916>
 8001b32:	f7fe fbaa 	bl	800028a <CPUCE+0x6a>
 8001b36:	0600      	lsls	r0, r0, #24
 8001b38:	4b89      	ldr	r3, [pc, #548]	; (8001d60 <CPUCE+0x1b40>)
 8001b3a:	1600      	asrs	r0, r0, #24
 8001b3c:	f003 f80a 	bl	8004b54 <CPU+0x14c0>
 8001b40:	4b8a      	ldr	r3, [pc, #552]	; (8001d6c <CPUCE+0x1b4c>)
 8001b42:	f003 f807 	bl	8004b54 <CPU+0x14c0>
 8001b46:	200c      	movs	r0, #12
 8001b48:	f7fe fb85 	bl	8000256 <CPUCE+0x36>
 8001b4c:	2001      	movs	r0, #1
 8001b4e:	4988      	ldr	r1, [pc, #544]	; (8001d70 <CPUCE+0x1b50>)
 8001b50:	4b88      	ldr	r3, [pc, #544]	; (8001d74 <CPUCE+0x1b54>)
 8001b52:	f002 ffff 	bl	8004b54 <CPU+0x14c0>
 8001b56:	2040      	movs	r0, #64	; 0x40
 8001b58:	f7fe fb7d 	bl	8000256 <CPUCE+0x36>
 8001b5c:	f002 fffc 	bl	8004b58 <CPU+0x14c4>
 8001b60:	0600      	lsls	r0, r0, #24
 8001b62:	4b7f      	ldr	r3, [pc, #508]	; (8001d60 <CPUCE+0x1b40>)
 8001b64:	1600      	asrs	r0, r0, #24
 8001b66:	89e5      	ldrh	r5, [r4, #14]
 8001b68:	f002 fff4 	bl	8004b54 <CPU+0x14c0>
 8001b6c:	7b63      	ldrb	r3, [r4, #13]
 8001b6e:	1829      	adds	r1, r5, r0
 8001b70:	0409      	lsls	r1, r1, #16
 8001b72:	041b      	lsls	r3, r3, #16
 8001b74:	0c09      	lsrs	r1, r1, #16
 8001b76:	4319      	orrs	r1, r3
 8001b78:	2001      	movs	r0, #1
 8001b7a:	4b76      	ldr	r3, [pc, #472]	; (8001d54 <CPUCE+0x1b34>)
 8001b7c:	f002 ffea 	bl	8004b54 <CPU+0x14c0>
 8001b80:	71a0      	strb	r0, [r4, #6]
 8001b82:	2010      	movs	r0, #16
 8001b84:	f7fe fb67 	bl	8000256 <CPUCE+0x36>
 8001b88:	f002 ffe6 	bl	8004b58 <CPU+0x14c4>
 8001b8c:	0600      	lsls	r0, r0, #24
 8001b8e:	4b74      	ldr	r3, [pc, #464]	; (8001d60 <CPUCE+0x1b40>)
 8001b90:	1600      	asrs	r0, r0, #24
 8001b92:	8965      	ldrh	r5, [r4, #10]
 8001b94:	f002 ffde 	bl	8004b54 <CPU+0x14c0>
 8001b98:	7a63      	ldrb	r3, [r4, #9]
 8001b9a:	1829      	adds	r1, r5, r0
 8001b9c:	0409      	lsls	r1, r1, #16
 8001b9e:	041b      	lsls	r3, r3, #16
 8001ba0:	0c09      	lsrs	r1, r1, #16
 8001ba2:	4319      	orrs	r1, r3
 8001ba4:	2001      	movs	r0, #1
 8001ba6:	4b6b      	ldr	r3, [pc, #428]	; (8001d54 <CPUCE+0x1b34>)
 8001ba8:	f002 ffd4 	bl	8004b54 <CPU+0x14c0>
 8001bac:	71a0      	strb	r0, [r4, #6]
 8001bae:	2010      	movs	r0, #16
 8001bb0:	f7fe fb51 	bl	8000256 <CPUCE+0x36>
 8001bb4:	2007      	movs	r0, #7
 8001bb6:	4b6a      	ldr	r3, [pc, #424]	; (8001d60 <CPUCE+0x1b40>)
 8001bb8:	5620      	ldrsb	r0, [r4, r0]
 8001bba:	89e5      	ldrh	r5, [r4, #14]
 8001bbc:	f002 ffca 	bl	8004b54 <CPU+0x14c0>
 8001bc0:	7b63      	ldrb	r3, [r4, #13]
 8001bc2:	1829      	adds	r1, r5, r0
 8001bc4:	0409      	lsls	r1, r1, #16
 8001bc6:	041b      	lsls	r3, r3, #16
 8001bc8:	0c09      	lsrs	r1, r1, #16
 8001bca:	4319      	orrs	r1, r3
 8001bcc:	2001      	movs	r0, #1
 8001bce:	79e2      	ldrb	r2, [r4, #7]
 8001bd0:	4b62      	ldr	r3, [pc, #392]	; (8001d5c <CPUCE+0x1b3c>)
 8001bd2:	f002 ffbf 	bl	8004b54 <CPU+0x14c0>
 8001bd6:	2010      	movs	r0, #16
 8001bd8:	f7fe fb3d 	bl	8000256 <CPUCE+0x36>
 8001bdc:	2007      	movs	r0, #7
 8001bde:	4b60      	ldr	r3, [pc, #384]	; (8001d60 <CPUCE+0x1b40>)
 8001be0:	5620      	ldrsb	r0, [r4, r0]
 8001be2:	8965      	ldrh	r5, [r4, #10]
 8001be4:	f002 ffb6 	bl	8004b54 <CPU+0x14c0>
 8001be8:	7a63      	ldrb	r3, [r4, #9]
 8001bea:	1829      	adds	r1, r5, r0
 8001bec:	0409      	lsls	r1, r1, #16
 8001bee:	041b      	lsls	r3, r3, #16
 8001bf0:	0c09      	lsrs	r1, r1, #16
 8001bf2:	4319      	orrs	r1, r3
 8001bf4:	2001      	movs	r0, #1
 8001bf6:	79e2      	ldrb	r2, [r4, #7]
 8001bf8:	4b58      	ldr	r3, [pc, #352]	; (8001d5c <CPUCE+0x1b3c>)
 8001bfa:	f002 ffab 	bl	8004b54 <CPU+0x14c0>
 8001bfe:	2010      	movs	r0, #16
 8001c00:	f7fe fb29 	bl	8000256 <CPUCE+0x36>
 8001c04:	f002 ffa8 	bl	8004b58 <CPU+0x14c4>
 8001c08:	0600      	lsls	r0, r0, #24
 8001c0a:	4b55      	ldr	r3, [pc, #340]	; (8001d60 <CPUCE+0x1b40>)
 8001c0c:	1600      	asrs	r0, r0, #24
 8001c0e:	89e5      	ldrh	r5, [r4, #14]
 8001c10:	f002 ffa0 	bl	8004b54 <CPU+0x14c0>
 8001c14:	7b63      	ldrb	r3, [r4, #13]
 8001c16:	1829      	adds	r1, r5, r0
 8001c18:	0409      	lsls	r1, r1, #16
 8001c1a:	041b      	lsls	r3, r3, #16
 8001c1c:	0c09      	lsrs	r1, r1, #16
 8001c1e:	4319      	orrs	r1, r3
 8001c20:	2001      	movs	r0, #1
 8001c22:	79e2      	ldrb	r2, [r4, #7]
 8001c24:	4b4d      	ldr	r3, [pc, #308]	; (8001d5c <CPUCE+0x1b3c>)
 8001c26:	f002 ff95 	bl	8004b54 <CPU+0x14c0>
 8001c2a:	2010      	movs	r0, #16
 8001c2c:	f7fe fb13 	bl	8000256 <CPUCE+0x36>
 8001c30:	f002 ff92 	bl	8004b58 <CPU+0x14c4>
 8001c34:	0600      	lsls	r0, r0, #24
 8001c36:	4b4a      	ldr	r3, [pc, #296]	; (8001d60 <CPUCE+0x1b40>)
 8001c38:	1600      	asrs	r0, r0, #24
 8001c3a:	8965      	ldrh	r5, [r4, #10]
 8001c3c:	f002 ff8a 	bl	8004b54 <CPU+0x14c0>
 8001c40:	7a63      	ldrb	r3, [r4, #9]
 8001c42:	1829      	adds	r1, r5, r0
 8001c44:	0409      	lsls	r1, r1, #16
 8001c46:	041b      	lsls	r3, r3, #16
 8001c48:	0c09      	lsrs	r1, r1, #16
 8001c4a:	4319      	orrs	r1, r3
 8001c4c:	2001      	movs	r0, #1
 8001c4e:	79e2      	ldrb	r2, [r4, #7]
 8001c50:	4b42      	ldr	r3, [pc, #264]	; (8001d5c <CPUCE+0x1b3c>)
 8001c52:	f002 ff7f 	bl	8004b54 <CPU+0x14c0>
 8001c56:	2010      	movs	r0, #16
 8001c58:	f7fe fafd 	bl	8000256 <CPUCE+0x36>
 8001c5c:	2007      	movs	r0, #7
 8001c5e:	4b40      	ldr	r3, [pc, #256]	; (8001d60 <CPUCE+0x1b40>)
 8001c60:	5620      	ldrsb	r0, [r4, r0]
 8001c62:	89e5      	ldrh	r5, [r4, #14]
 8001c64:	f002 ff76 	bl	8004b54 <CPU+0x14c0>
 8001c68:	7b63      	ldrb	r3, [r4, #13]
 8001c6a:	1829      	adds	r1, r5, r0
 8001c6c:	0409      	lsls	r1, r1, #16
 8001c6e:	041b      	lsls	r3, r3, #16
 8001c70:	0c09      	lsrs	r1, r1, #16
 8001c72:	4319      	orrs	r1, r3
 8001c74:	2001      	movs	r0, #1
 8001c76:	4b37      	ldr	r3, [pc, #220]	; (8001d54 <CPUCE+0x1b34>)
 8001c78:	f002 ff6c 	bl	8004b54 <CPU+0x14c0>
 8001c7c:	71e0      	strb	r0, [r4, #7]
 8001c7e:	2010      	movs	r0, #16
 8001c80:	f7fe fae9 	bl	8000256 <CPUCE+0x36>
 8001c84:	2007      	movs	r0, #7
 8001c86:	4b36      	ldr	r3, [pc, #216]	; (8001d60 <CPUCE+0x1b40>)
 8001c88:	5620      	ldrsb	r0, [r4, r0]
 8001c8a:	8965      	ldrh	r5, [r4, #10]
 8001c8c:	f002 ff62 	bl	8004b54 <CPU+0x14c0>
 8001c90:	7a63      	ldrb	r3, [r4, #9]
 8001c92:	1829      	adds	r1, r5, r0
 8001c94:	0409      	lsls	r1, r1, #16
 8001c96:	041b      	lsls	r3, r3, #16
 8001c98:	0c09      	lsrs	r1, r1, #16
 8001c9a:	4319      	orrs	r1, r3
 8001c9c:	2001      	movs	r0, #1
 8001c9e:	4b2d      	ldr	r3, [pc, #180]	; (8001d54 <CPUCE+0x1b34>)
 8001ca0:	f002 ff58 	bl	8004b54 <CPU+0x14c0>
 8001ca4:	71e0      	strb	r0, [r4, #7]
 8001ca6:	2010      	movs	r0, #16
 8001ca8:	f7fe fad5 	bl	8000256 <CPUCE+0x36>
 8001cac:	f002 ff54 	bl	8004b58 <CPU+0x14c4>
 8001cb0:	0600      	lsls	r0, r0, #24
 8001cb2:	4b2b      	ldr	r3, [pc, #172]	; (8001d60 <CPUCE+0x1b40>)
 8001cb4:	1600      	asrs	r0, r0, #24
 8001cb6:	89e5      	ldrh	r5, [r4, #14]
 8001cb8:	f002 ff4c 	bl	8004b54 <CPU+0x14c0>
 8001cbc:	7b63      	ldrb	r3, [r4, #13]
 8001cbe:	1829      	adds	r1, r5, r0
 8001cc0:	0409      	lsls	r1, r1, #16
 8001cc2:	041b      	lsls	r3, r3, #16
 8001cc4:	0c09      	lsrs	r1, r1, #16
 8001cc6:	4319      	orrs	r1, r3
 8001cc8:	2001      	movs	r0, #1
 8001cca:	4b22      	ldr	r3, [pc, #136]	; (8001d54 <CPUCE+0x1b34>)
 8001ccc:	f002 ff42 	bl	8004b54 <CPU+0x14c0>
 8001cd0:	71e0      	strb	r0, [r4, #7]
 8001cd2:	2010      	movs	r0, #16
 8001cd4:	f7fe fabf 	bl	8000256 <CPUCE+0x36>
 8001cd8:	f002 ff3e 	bl	8004b58 <CPU+0x14c4>
 8001cdc:	0600      	lsls	r0, r0, #24
 8001cde:	4b20      	ldr	r3, [pc, #128]	; (8001d60 <CPUCE+0x1b40>)
 8001ce0:	1600      	asrs	r0, r0, #24
 8001ce2:	8965      	ldrh	r5, [r4, #10]
 8001ce4:	f002 ff36 	bl	8004b54 <CPU+0x14c0>
 8001ce8:	7a63      	ldrb	r3, [r4, #9]
 8001cea:	1829      	adds	r1, r5, r0
 8001cec:	0409      	lsls	r1, r1, #16
 8001cee:	041b      	lsls	r3, r3, #16
 8001cf0:	0c09      	lsrs	r1, r1, #16
 8001cf2:	4319      	orrs	r1, r3
 8001cf4:	2001      	movs	r0, #1
 8001cf6:	4b17      	ldr	r3, [pc, #92]	; (8001d54 <CPUCE+0x1b34>)
 8001cf8:	f002 ff2c 	bl	8004b54 <CPU+0x14c0>
 8001cfc:	71e0      	strb	r0, [r4, #7]
 8001cfe:	2010      	movs	r0, #16
 8001d00:	f7fe faa9 	bl	8000256 <CPUCE+0x36>
 8001d04:	2007      	movs	r0, #7
 8001d06:	4b16      	ldr	r3, [pc, #88]	; (8001d60 <CPUCE+0x1b40>)
 8001d08:	5620      	ldrsb	r0, [r4, r0]
 8001d0a:	89e5      	ldrh	r5, [r4, #14]
 8001d0c:	f002 ff22 	bl	8004b54 <CPU+0x14c0>
 8001d10:	7b63      	ldrb	r3, [r4, #13]
 8001d12:	1829      	adds	r1, r5, r0
 8001d14:	0409      	lsls	r1, r1, #16
 8001d16:	041b      	lsls	r3, r3, #16
 8001d18:	0c09      	lsrs	r1, r1, #16
 8001d1a:	4319      	orrs	r1, r3
 8001d1c:	2001      	movs	r0, #1
 8001d1e:	78a2      	ldrb	r2, [r4, #2]
 8001d20:	4b0e      	ldr	r3, [pc, #56]	; (8001d5c <CPUCE+0x1b3c>)
 8001d22:	f002 ff17 	bl	8004b54 <CPU+0x14c0>
 8001d26:	2010      	movs	r0, #16
 8001d28:	f7fe fa95 	bl	8000256 <CPUCE+0x36>
 8001d2c:	2007      	movs	r0, #7
 8001d2e:	4b0c      	ldr	r3, [pc, #48]	; (8001d60 <CPUCE+0x1b40>)
 8001d30:	5620      	ldrsb	r0, [r4, r0]
 8001d32:	8965      	ldrh	r5, [r4, #10]
 8001d34:	f002 ff0e 	bl	8004b54 <CPU+0x14c0>
 8001d38:	7a63      	ldrb	r3, [r4, #9]
 8001d3a:	1829      	adds	r1, r5, r0
 8001d3c:	0409      	lsls	r1, r1, #16
 8001d3e:	041b      	lsls	r3, r3, #16
 8001d40:	0c09      	lsrs	r1, r1, #16
 8001d42:	4319      	orrs	r1, r3
 8001d44:	2001      	movs	r0, #1
 8001d46:	78a2      	ldrb	r2, [r4, #2]
 8001d48:	4b04      	ldr	r3, [pc, #16]	; (8001d5c <CPUCE+0x1b3c>)
 8001d4a:	f002 ff03 	bl	8004b54 <CPU+0x14c0>
 8001d4e:	2010      	movs	r0, #16
 8001d50:	f7fe fa81 	bl	8000256 <CPUCE+0x36>
 8001d54:	08004b5d 	stmdaeq	r0, {r0, r2, r3, r4, r6, r8, r9, fp, lr}
 8001d58:	08005239 	stmdaeq	r0, {r0, r3, r4, r5, r9, ip, lr}
 8001d5c:	08004be9 	stmdaeq	r0, {r0, r3, r5, r6, r7, r8, r9, fp, lr}
 8001d60:	08005511 	stmdaeq	r0, {r0, r4, r8, sl, ip, lr}
 8001d64:	0800538d 	stmdaeq	r0, {r0, r2, r3, r7, r8, r9, ip, lr}
 8001d68:	080053e1 	stmdaeq	r0, {r0, r5, r6, r7, r8, r9, ip, lr}
 8001d6c:	080054f5 	stmdaeq	r0, {r0, r2, r4, r5, r6, r7, sl, ip, lr}
 8001d70:	0000dcce 	andeq	sp, r0, lr, asr #25
 8001d74:	080060d5 	stmdaeq	r0, {r0, r2, r4, r6, r7, sp, lr}
 8001d78:	f002 feee 	bl	8004b58 <CPU+0x14c4>
 8001d7c:	0600      	lsls	r0, r0, #24
 8001d7e:	4be8      	ldr	r3, [pc, #928]	; (8002120 <CPUCE+0x1f00>)
 8001d80:	1600      	asrs	r0, r0, #24
 8001d82:	89e5      	ldrh	r5, [r4, #14]
 8001d84:	f002 fee6 	bl	8004b54 <CPU+0x14c0>
 8001d88:	7b63      	ldrb	r3, [r4, #13]
 8001d8a:	1829      	adds	r1, r5, r0
 8001d8c:	0409      	lsls	r1, r1, #16
 8001d8e:	041b      	lsls	r3, r3, #16
 8001d90:	0c09      	lsrs	r1, r1, #16
 8001d92:	4319      	orrs	r1, r3
 8001d94:	2001      	movs	r0, #1
 8001d96:	78a2      	ldrb	r2, [r4, #2]
 8001d98:	4be2      	ldr	r3, [pc, #904]	; (8002124 <CPUCE+0x1f04>)
 8001d9a:	f002 fedb 	bl	8004b54 <CPU+0x14c0>
 8001d9e:	2010      	movs	r0, #16
 8001da0:	f7fe fa59 	bl	8000256 <CPUCE+0x36>
 8001da4:	f002 fed8 	bl	8004b58 <CPU+0x14c4>
 8001da8:	0600      	lsls	r0, r0, #24
 8001daa:	4bdd      	ldr	r3, [pc, #884]	; (8002120 <CPUCE+0x1f00>)
 8001dac:	1600      	asrs	r0, r0, #24
 8001dae:	8965      	ldrh	r5, [r4, #10]
 8001db0:	f002 fed0 	bl	8004b54 <CPU+0x14c0>
 8001db4:	7a63      	ldrb	r3, [r4, #9]
 8001db6:	1829      	adds	r1, r5, r0
 8001db8:	0409      	lsls	r1, r1, #16
 8001dba:	041b      	lsls	r3, r3, #16
 8001dbc:	0c09      	lsrs	r1, r1, #16
 8001dbe:	4319      	orrs	r1, r3
 8001dc0:	2001      	movs	r0, #1
 8001dc2:	78a2      	ldrb	r2, [r4, #2]
 8001dc4:	4bd7      	ldr	r3, [pc, #860]	; (8002124 <CPUCE+0x1f04>)
 8001dc6:	f002 fec5 	bl	8004b54 <CPU+0x14c0>
 8001dca:	2010      	movs	r0, #16
 8001dcc:	f7fe fa43 	bl	8000256 <CPUCE+0x36>
 8001dd0:	2007      	movs	r0, #7
 8001dd2:	4bd3      	ldr	r3, [pc, #844]	; (8002120 <CPUCE+0x1f00>)
 8001dd4:	5620      	ldrsb	r0, [r4, r0]
 8001dd6:	89e5      	ldrh	r5, [r4, #14]
 8001dd8:	f002 febc 	bl	8004b54 <CPU+0x14c0>
 8001ddc:	7b63      	ldrb	r3, [r4, #13]
 8001dde:	1829      	adds	r1, r5, r0
 8001de0:	0409      	lsls	r1, r1, #16
 8001de2:	041b      	lsls	r3, r3, #16
 8001de4:	0c09      	lsrs	r1, r1, #16
 8001de6:	4319      	orrs	r1, r3
 8001de8:	2001      	movs	r0, #1
 8001dea:	4bcf      	ldr	r3, [pc, #828]	; (8002128 <CPUCE+0x1f08>)
 8001dec:	f002 feb2 	bl	8004b54 <CPU+0x14c0>
 8001df0:	70a0      	strb	r0, [r4, #2]
 8001df2:	2010      	movs	r0, #16
 8001df4:	f7fe fa2f 	bl	8000256 <CPUCE+0x36>
 8001df8:	2007      	movs	r0, #7
 8001dfa:	4bc9      	ldr	r3, [pc, #804]	; (8002120 <CPUCE+0x1f00>)
 8001dfc:	5620      	ldrsb	r0, [r4, r0]
 8001dfe:	8965      	ldrh	r5, [r4, #10]
 8001e00:	f002 fea8 	bl	8004b54 <CPU+0x14c0>
 8001e04:	7a63      	ldrb	r3, [r4, #9]
 8001e06:	1829      	adds	r1, r5, r0
 8001e08:	0409      	lsls	r1, r1, #16
 8001e0a:	041b      	lsls	r3, r3, #16
 8001e0c:	0c09      	lsrs	r1, r1, #16
 8001e0e:	4319      	orrs	r1, r3
 8001e10:	2001      	movs	r0, #1
 8001e12:	4bc5      	ldr	r3, [pc, #788]	; (8002128 <CPUCE+0x1f08>)
 8001e14:	f002 fe9e 	bl	8004b54 <CPU+0x14c0>
 8001e18:	70a0      	strb	r0, [r4, #2]
 8001e1a:	2010      	movs	r0, #16
 8001e1c:	f7fe fa1b 	bl	8000256 <CPUCE+0x36>
 8001e20:	f002 fe9a 	bl	8004b58 <CPU+0x14c4>
 8001e24:	0600      	lsls	r0, r0, #24
 8001e26:	4bbe      	ldr	r3, [pc, #760]	; (8002120 <CPUCE+0x1f00>)
 8001e28:	1600      	asrs	r0, r0, #24
 8001e2a:	89e5      	ldrh	r5, [r4, #14]
 8001e2c:	f002 fe92 	bl	8004b54 <CPU+0x14c0>
 8001e30:	7b63      	ldrb	r3, [r4, #13]
 8001e32:	1829      	adds	r1, r5, r0
 8001e34:	0409      	lsls	r1, r1, #16
 8001e36:	041b      	lsls	r3, r3, #16
 8001e38:	0c09      	lsrs	r1, r1, #16
 8001e3a:	4319      	orrs	r1, r3
 8001e3c:	2001      	movs	r0, #1
 8001e3e:	4bba      	ldr	r3, [pc, #744]	; (8002128 <CPUCE+0x1f08>)
 8001e40:	f002 fe88 	bl	8004b54 <CPU+0x14c0>
 8001e44:	70a0      	strb	r0, [r4, #2]
 8001e46:	2010      	movs	r0, #16
 8001e48:	f7fe fa05 	bl	8000256 <CPUCE+0x36>
 8001e4c:	f002 fe84 	bl	8004b58 <CPU+0x14c4>
 8001e50:	0600      	lsls	r0, r0, #24
 8001e52:	4bb3      	ldr	r3, [pc, #716]	; (8002120 <CPUCE+0x1f00>)
 8001e54:	1600      	asrs	r0, r0, #24
 8001e56:	8965      	ldrh	r5, [r4, #10]
 8001e58:	f002 fe7c 	bl	8004b54 <CPU+0x14c0>
 8001e5c:	7a63      	ldrb	r3, [r4, #9]
 8001e5e:	1829      	adds	r1, r5, r0
 8001e60:	0409      	lsls	r1, r1, #16
 8001e62:	041b      	lsls	r3, r3, #16
 8001e64:	0c09      	lsrs	r1, r1, #16
 8001e66:	4319      	orrs	r1, r3
 8001e68:	2001      	movs	r0, #1
 8001e6a:	4baf      	ldr	r3, [pc, #700]	; (8002128 <CPUCE+0x1f08>)
 8001e6c:	f002 fe72 	bl	8004b54 <CPU+0x14c0>
 8001e70:	70a0      	strb	r0, [r4, #2]
 8001e72:	2010      	movs	r0, #16
 8001e74:	f7fe f9ef 	bl	8000256 <CPUCE+0x36>
 8001e78:	2007      	movs	r0, #7
 8001e7a:	4ba9      	ldr	r3, [pc, #676]	; (8002120 <CPUCE+0x1f00>)
 8001e7c:	5620      	ldrsb	r0, [r4, r0]
 8001e7e:	89e5      	ldrh	r5, [r4, #14]
 8001e80:	f002 fe68 	bl	8004b54 <CPU+0x14c0>
 8001e84:	7b63      	ldrb	r3, [r4, #13]
 8001e86:	1829      	adds	r1, r5, r0
 8001e88:	0409      	lsls	r1, r1, #16
 8001e8a:	041b      	lsls	r3, r3, #16
 8001e8c:	0c09      	lsrs	r1, r1, #16
 8001e8e:	4319      	orrs	r1, r3
 8001e90:	2001      	movs	r0, #1
 8001e92:	78e2      	ldrb	r2, [r4, #3]
 8001e94:	4ba3      	ldr	r3, [pc, #652]	; (8002124 <CPUCE+0x1f04>)
 8001e96:	f002 fe5d 	bl	8004b54 <CPU+0x14c0>
 8001e9a:	2010      	movs	r0, #16
 8001e9c:	f7fe f9db 	bl	8000256 <CPUCE+0x36>
 8001ea0:	2007      	movs	r0, #7
 8001ea2:	4b9f      	ldr	r3, [pc, #636]	; (8002120 <CPUCE+0x1f00>)
 8001ea4:	5620      	ldrsb	r0, [r4, r0]
 8001ea6:	8965      	ldrh	r5, [r4, #10]
 8001ea8:	f002 fe54 	bl	8004b54 <CPU+0x14c0>
 8001eac:	7a63      	ldrb	r3, [r4, #9]
 8001eae:	1829      	adds	r1, r5, r0
 8001eb0:	0409      	lsls	r1, r1, #16
 8001eb2:	041b      	lsls	r3, r3, #16
 8001eb4:	0c09      	lsrs	r1, r1, #16
 8001eb6:	4319      	orrs	r1, r3
 8001eb8:	2001      	movs	r0, #1
 8001eba:	78e2      	ldrb	r2, [r4, #3]
 8001ebc:	4b99      	ldr	r3, [pc, #612]	; (8002124 <CPUCE+0x1f04>)
 8001ebe:	f002 fe49 	bl	8004b54 <CPU+0x14c0>
 8001ec2:	2010      	movs	r0, #16
 8001ec4:	f7fe f9c7 	bl	8000256 <CPUCE+0x36>
 8001ec8:	f002 fe46 	bl	8004b58 <CPU+0x14c4>
 8001ecc:	0600      	lsls	r0, r0, #24
 8001ece:	4b94      	ldr	r3, [pc, #592]	; (8002120 <CPUCE+0x1f00>)
 8001ed0:	1600      	asrs	r0, r0, #24
 8001ed2:	89e5      	ldrh	r5, [r4, #14]
 8001ed4:	f002 fe3e 	bl	8004b54 <CPU+0x14c0>
 8001ed8:	7b63      	ldrb	r3, [r4, #13]
 8001eda:	1829      	adds	r1, r5, r0
 8001edc:	0409      	lsls	r1, r1, #16
 8001ede:	041b      	lsls	r3, r3, #16
 8001ee0:	0c09      	lsrs	r1, r1, #16
 8001ee2:	4319      	orrs	r1, r3
 8001ee4:	2001      	movs	r0, #1
 8001ee6:	78e2      	ldrb	r2, [r4, #3]
 8001ee8:	4b8e      	ldr	r3, [pc, #568]	; (8002124 <CPUCE+0x1f04>)
 8001eea:	f002 fe33 	bl	8004b54 <CPU+0x14c0>
 8001eee:	2010      	movs	r0, #16
 8001ef0:	f7fe f9b1 	bl	8000256 <CPUCE+0x36>
 8001ef4:	f002 fe30 	bl	8004b58 <CPU+0x14c4>
 8001ef8:	0600      	lsls	r0, r0, #24
 8001efa:	4b89      	ldr	r3, [pc, #548]	; (8002120 <CPUCE+0x1f00>)
 8001efc:	1600      	asrs	r0, r0, #24
 8001efe:	8965      	ldrh	r5, [r4, #10]
 8001f00:	f002 fe28 	bl	8004b54 <CPU+0x14c0>
 8001f04:	7a63      	ldrb	r3, [r4, #9]
 8001f06:	1829      	adds	r1, r5, r0
 8001f08:	0409      	lsls	r1, r1, #16
 8001f0a:	041b      	lsls	r3, r3, #16
 8001f0c:	0c09      	lsrs	r1, r1, #16
 8001f0e:	4319      	orrs	r1, r3
 8001f10:	2001      	movs	r0, #1
 8001f12:	78e2      	ldrb	r2, [r4, #3]
 8001f14:	4b83      	ldr	r3, [pc, #524]	; (8002124 <CPUCE+0x1f04>)
 8001f16:	f002 fe1d 	bl	8004b54 <CPU+0x14c0>
 8001f1a:	2010      	movs	r0, #16
 8001f1c:	f7fe f99b 	bl	8000256 <CPUCE+0x36>
 8001f20:	2007      	movs	r0, #7
 8001f22:	4b7f      	ldr	r3, [pc, #508]	; (8002120 <CPUCE+0x1f00>)
 8001f24:	5620      	ldrsb	r0, [r4, r0]
 8001f26:	89e5      	ldrh	r5, [r4, #14]
 8001f28:	f002 fe14 	bl	8004b54 <CPU+0x14c0>
 8001f2c:	7b63      	ldrb	r3, [r4, #13]
 8001f2e:	1829      	adds	r1, r5, r0
 8001f30:	0409      	lsls	r1, r1, #16
 8001f32:	041b      	lsls	r3, r3, #16
 8001f34:	0c09      	lsrs	r1, r1, #16
 8001f36:	4319      	orrs	r1, r3
 8001f38:	2001      	movs	r0, #1
 8001f3a:	4b7b      	ldr	r3, [pc, #492]	; (8002128 <CPUCE+0x1f08>)
 8001f3c:	f002 fe0a 	bl	8004b54 <CPU+0x14c0>
 8001f40:	70e0      	strb	r0, [r4, #3]
 8001f42:	2010      	movs	r0, #16
 8001f44:	f7fe f987 	bl	8000256 <CPUCE+0x36>
 8001f48:	2007      	movs	r0, #7
 8001f4a:	4b75      	ldr	r3, [pc, #468]	; (8002120 <CPUCE+0x1f00>)
 8001f4c:	5620      	ldrsb	r0, [r4, r0]
 8001f4e:	8965      	ldrh	r5, [r4, #10]
 8001f50:	f002 fe00 	bl	8004b54 <CPU+0x14c0>
 8001f54:	7a63      	ldrb	r3, [r4, #9]
 8001f56:	1829      	adds	r1, r5, r0
 8001f58:	0409      	lsls	r1, r1, #16
 8001f5a:	041b      	lsls	r3, r3, #16
 8001f5c:	0c09      	lsrs	r1, r1, #16
 8001f5e:	4319      	orrs	r1, r3
 8001f60:	2001      	movs	r0, #1
 8001f62:	4b71      	ldr	r3, [pc, #452]	; (8002128 <CPUCE+0x1f08>)
 8001f64:	f002 fdf6 	bl	8004b54 <CPU+0x14c0>
 8001f68:	70e0      	strb	r0, [r4, #3]
 8001f6a:	2010      	movs	r0, #16
 8001f6c:	f7fe f973 	bl	8000256 <CPUCE+0x36>
 8001f70:	f002 fdf2 	bl	8004b58 <CPU+0x14c4>
 8001f74:	0600      	lsls	r0, r0, #24
 8001f76:	4b6a      	ldr	r3, [pc, #424]	; (8002120 <CPUCE+0x1f00>)
 8001f78:	1600      	asrs	r0, r0, #24
 8001f7a:	89e5      	ldrh	r5, [r4, #14]
 8001f7c:	f002 fdea 	bl	8004b54 <CPU+0x14c0>
 8001f80:	7b63      	ldrb	r3, [r4, #13]
 8001f82:	1829      	adds	r1, r5, r0
 8001f84:	0409      	lsls	r1, r1, #16
 8001f86:	041b      	lsls	r3, r3, #16
 8001f88:	0c09      	lsrs	r1, r1, #16
 8001f8a:	4319      	orrs	r1, r3
 8001f8c:	2001      	movs	r0, #1
 8001f8e:	4b66      	ldr	r3, [pc, #408]	; (8002128 <CPUCE+0x1f08>)
 8001f90:	f002 fde0 	bl	8004b54 <CPU+0x14c0>
 8001f94:	70e0      	strb	r0, [r4, #3]
 8001f96:	2010      	movs	r0, #16
 8001f98:	f7fe f95d 	bl	8000256 <CPUCE+0x36>
 8001f9c:	f002 fddc 	bl	8004b58 <CPU+0x14c4>
 8001fa0:	0600      	lsls	r0, r0, #24
 8001fa2:	4b5f      	ldr	r3, [pc, #380]	; (8002120 <CPUCE+0x1f00>)
 8001fa4:	1600      	asrs	r0, r0, #24
 8001fa6:	8965      	ldrh	r5, [r4, #10]
 8001fa8:	f002 fdd4 	bl	8004b54 <CPU+0x14c0>
 8001fac:	7a63      	ldrb	r3, [r4, #9]
 8001fae:	1829      	adds	r1, r5, r0
 8001fb0:	0409      	lsls	r1, r1, #16
 8001fb2:	041b      	lsls	r3, r3, #16
 8001fb4:	0c09      	lsrs	r1, r1, #16
 8001fb6:	4319      	orrs	r1, r3
 8001fb8:	2001      	movs	r0, #1
 8001fba:	4b5b      	ldr	r3, [pc, #364]	; (8002128 <CPUCE+0x1f08>)
 8001fbc:	f002 fdca 	bl	8004b54 <CPU+0x14c0>
 8001fc0:	70e0      	strb	r0, [r4, #3]
 8001fc2:	2010      	movs	r0, #16
 8001fc4:	f7fe f947 	bl	8000256 <CPUCE+0x36>
 8001fc8:	6865      	ldr	r5, [r4, #4]
 8001fca:	4e57      	ldr	r6, [pc, #348]	; (8002128 <CPUCE+0x1f08>)
 8001fcc:	0029      	movs	r1, r5
 8001fce:	2001      	movs	r0, #1
 8001fd0:	f002 fdc3 	bl	8004b5a <CPU+0x14c6>
 8001fd4:	68e1      	ldr	r1, [r4, #12]
 8001fd6:	0007      	movs	r7, r0
 8001fd8:	2001      	movs	r0, #1
 8001fda:	f002 fdbe 	bl	8004b5a <CPU+0x14c6>
 8001fde:	4b53      	ldr	r3, [pc, #332]	; (800212c <CPUCE+0x1f0c>)
 8001fe0:	0001      	movs	r1, r0
 8001fe2:	0038      	movs	r0, r7
 8001fe4:	f002 fdb6 	bl	8004b54 <CPU+0x14c0>
 8001fe8:	0029      	movs	r1, r5
 8001fea:	0002      	movs	r2, r0
 8001fec:	4b4d      	ldr	r3, [pc, #308]	; (8002124 <CPUCE+0x1f04>)
 8001fee:	2001      	movs	r0, #1
 8001ff0:	f002 fdb0 	bl	8004b54 <CPU+0x14c0>
 8001ff4:	2014      	movs	r0, #20
 8001ff6:	f7fe f92e 	bl	8000256 <CPUCE+0x36>
 8001ffa:	6865      	ldr	r5, [r4, #4]
 8001ffc:	4e4a      	ldr	r6, [pc, #296]	; (8002128 <CPUCE+0x1f08>)
 8001ffe:	0029      	movs	r1, r5
 8002000:	2001      	movs	r0, #1
 8002002:	f002 fdaa 	bl	8004b5a <CPU+0x14c6>
 8002006:	68a1      	ldr	r1, [r4, #8]
 8002008:	0007      	movs	r7, r0
 800200a:	2001      	movs	r0, #1
 800200c:	f002 fda5 	bl	8004b5a <CPU+0x14c6>
 8002010:	4b46      	ldr	r3, [pc, #280]	; (800212c <CPUCE+0x1f0c>)
 8002012:	0001      	movs	r1, r0
 8002014:	0038      	movs	r0, r7
 8002016:	f002 fd9d 	bl	8004b54 <CPU+0x14c0>
 800201a:	0029      	movs	r1, r5
 800201c:	0002      	movs	r2, r0
 800201e:	4b41      	ldr	r3, [pc, #260]	; (8002124 <CPUCE+0x1f04>)
 8002020:	2001      	movs	r0, #1
 8002022:	f002 fd97 	bl	8004b54 <CPU+0x14c0>
 8002026:	2014      	movs	r0, #20
 8002028:	f7fe f915 	bl	8000256 <CPUCE+0x36>
 800202c:	f002 fd94 	bl	8004b58 <CPU+0x14c4>
 8002030:	0005      	movs	r5, r0
 8002032:	6864      	ldr	r4, [r4, #4]
 8002034:	4b3c      	ldr	r3, [pc, #240]	; (8002128 <CPUCE+0x1f08>)
 8002036:	0021      	movs	r1, r4
 8002038:	2001      	movs	r0, #1
 800203a:	f002 fd8b 	bl	8004b54 <CPU+0x14c0>
 800203e:	0029      	movs	r1, r5
 8002040:	4b3a      	ldr	r3, [pc, #232]	; (800212c <CPUCE+0x1f0c>)
 8002042:	f002 fd87 	bl	8004b54 <CPU+0x14c0>
 8002046:	0021      	movs	r1, r4
 8002048:	0002      	movs	r2, r0
 800204a:	4b36      	ldr	r3, [pc, #216]	; (8002124 <CPUCE+0x1f04>)
 800204c:	2001      	movs	r0, #1
 800204e:	f002 fd81 	bl	8004b54 <CPU+0x14c0>
 8002052:	2014      	movs	r0, #20
 8002054:	f7fe f8ff 	bl	8000256 <CPUCE+0x36>
 8002058:	6865      	ldr	r5, [r4, #4]
 800205a:	4b33      	ldr	r3, [pc, #204]	; (8002128 <CPUCE+0x1f08>)
 800205c:	0029      	movs	r1, r5
 800205e:	2001      	movs	r0, #1
 8002060:	f002 fd78 	bl	8004b54 <CPU+0x14c0>
 8002064:	78e1      	ldrb	r1, [r4, #3]
 8002066:	4b31      	ldr	r3, [pc, #196]	; (800212c <CPUCE+0x1f0c>)
 8002068:	f002 fd74 	bl	8004b54 <CPU+0x14c0>
 800206c:	0029      	movs	r1, r5
 800206e:	0002      	movs	r2, r0
 8002070:	4b2c      	ldr	r3, [pc, #176]	; (8002124 <CPUCE+0x1f04>)
 8002072:	2001      	movs	r0, #1
 8002074:	f002 fd6e 	bl	8004b54 <CPU+0x14c0>
 8002078:	2010      	movs	r0, #16
 800207a:	f7fe f8ec 	bl	8000256 <CPUCE+0x36>
 800207e:	2007      	movs	r0, #7
 8002080:	4b27      	ldr	r3, [pc, #156]	; (8002120 <CPUCE+0x1f00>)
 8002082:	5620      	ldrsb	r0, [r4, r0]
 8002084:	89e5      	ldrh	r5, [r4, #14]
 8002086:	f002 fd65 	bl	8004b54 <CPU+0x14c0>
 800208a:	7b63      	ldrb	r3, [r4, #13]
 800208c:	1829      	adds	r1, r5, r0
 800208e:	0409      	lsls	r1, r1, #16
 8002090:	041b      	lsls	r3, r3, #16
 8002092:	0c09      	lsrs	r1, r1, #16
 8002094:	4319      	orrs	r1, r3
 8002096:	2001      	movs	r0, #1
 8002098:	4b23      	ldr	r3, [pc, #140]	; (8002128 <CPUCE+0x1f08>)
 800209a:	78e6      	ldrb	r6, [r4, #3]
 800209c:	f002 fd5a 	bl	8004b54 <CPU+0x14c0>
 80020a0:	4b22      	ldr	r3, [pc, #136]	; (800212c <CPUCE+0x1f0c>)
 80020a2:	0001      	movs	r1, r0
 80020a4:	0030      	movs	r0, r6
 80020a6:	f002 fd55 	bl	8004b54 <CPU+0x14c0>
 80020aa:	70e0      	strb	r0, [r4, #3]
 80020ac:	2010      	movs	r0, #16
 80020ae:	f7fe f8d2 	bl	8000256 <CPUCE+0x36>
 80020b2:	2007      	movs	r0, #7
 80020b4:	4b1a      	ldr	r3, [pc, #104]	; (8002120 <CPUCE+0x1f00>)
 80020b6:	5620      	ldrsb	r0, [r4, r0]
 80020b8:	8965      	ldrh	r5, [r4, #10]
 80020ba:	f002 fd4b 	bl	8004b54 <CPU+0x14c0>
 80020be:	7a63      	ldrb	r3, [r4, #9]
 80020c0:	1829      	adds	r1, r5, r0
 80020c2:	0409      	lsls	r1, r1, #16
 80020c4:	041b      	lsls	r3, r3, #16
 80020c6:	0c09      	lsrs	r1, r1, #16
 80020c8:	4319      	orrs	r1, r3
 80020ca:	2001      	movs	r0, #1
 80020cc:	4b16      	ldr	r3, [pc, #88]	; (8002128 <CPUCE+0x1f08>)
 80020ce:	78e6      	ldrb	r6, [r4, #3]
 80020d0:	f002 fd40 	bl	8004b54 <CPU+0x14c0>
 80020d4:	4b15      	ldr	r3, [pc, #84]	; (800212c <CPUCE+0x1f0c>)
 80020d6:	0001      	movs	r1, r0
 80020d8:	0030      	movs	r0, r6
 80020da:	f002 fd3b 	bl	8004b54 <CPU+0x14c0>
 80020de:	70e0      	strb	r0, [r4, #3]
 80020e0:	2010      	movs	r0, #16
 80020e2:	f7fe f8b8 	bl	8000256 <CPUCE+0x36>
 80020e6:	f002 fd37 	bl	8004b58 <CPU+0x14c4>
 80020ea:	0600      	lsls	r0, r0, #24
 80020ec:	4b0c      	ldr	r3, [pc, #48]	; (8002120 <CPUCE+0x1f00>)
 80020ee:	1600      	asrs	r0, r0, #24
 80020f0:	89e5      	ldrh	r5, [r4, #14]
 80020f2:	f002 fd2f 	bl	8004b54 <CPU+0x14c0>
 80020f6:	7b63      	ldrb	r3, [r4, #13]
 80020f8:	1829      	adds	r1, r5, r0
 80020fa:	0409      	lsls	r1, r1, #16
 80020fc:	041b      	lsls	r3, r3, #16
 80020fe:	0c09      	lsrs	r1, r1, #16
 8002100:	4319      	orrs	r1, r3
 8002102:	2001      	movs	r0, #1
 8002104:	4b08      	ldr	r3, [pc, #32]	; (8002128 <CPUCE+0x1f08>)
 8002106:	78e6      	ldrb	r6, [r4, #3]
 8002108:	f002 fd24 	bl	8004b54 <CPU+0x14c0>
 800210c:	4b07      	ldr	r3, [pc, #28]	; (800212c <CPUCE+0x1f0c>)
 800210e:	0001      	movs	r1, r0
 8002110:	0030      	movs	r0, r6
 8002112:	f002 fd1f 	bl	8004b54 <CPU+0x14c0>
 8002116:	70e0      	strb	r0, [r4, #3]
 8002118:	2010      	movs	r0, #16
 800211a:	f7fe f89c 	bl	8000256 <CPUCE+0x36>
 800211e:	46c0      	nop			; (mov r8, r8)
 8002120:	08005511 	stmdaeq	r0, {r0, r4, r8, sl, ip, lr}
 8002124:	08004be9 	stmdaeq	r0, {r0, r3, r5, r6, r7, r8, r9, fp, lr}
 8002128:	08004b5d 	stmdaeq	r0, {r0, r2, r3, r4, r6, r8, r9, fp, lr}
 800212c:	080053b5 	stmdaeq	r0, {r0, r2, r4, r5, r7, r8, r9, ip, lr}
 8002130:	f002 fd12 	bl	8004b58 <CPU+0x14c4>
 8002134:	0600      	lsls	r0, r0, #24
 8002136:	4bf1      	ldr	r3, [pc, #964]	; (80024fc <CPUCE+0x22dc>)
 8002138:	1600      	asrs	r0, r0, #24
 800213a:	8965      	ldrh	r5, [r4, #10]
 800213c:	f002 fd0a 	bl	8004b54 <CPU+0x14c0>
 8002140:	7a63      	ldrb	r3, [r4, #9]
 8002142:	1829      	adds	r1, r5, r0
 8002144:	0409      	lsls	r1, r1, #16
 8002146:	041b      	lsls	r3, r3, #16
 8002148:	0c09      	lsrs	r1, r1, #16
 800214a:	4319      	orrs	r1, r3
 800214c:	2001      	movs	r0, #1
 800214e:	4bec      	ldr	r3, [pc, #944]	; (8002500 <CPUCE+0x22e0>)
 8002150:	78e6      	ldrb	r6, [r4, #3]
 8002152:	f002 fcff 	bl	8004b54 <CPU+0x14c0>
 8002156:	4beb      	ldr	r3, [pc, #940]	; (8002504 <CPUCE+0x22e4>)
 8002158:	0001      	movs	r1, r0
 800215a:	0030      	movs	r0, r6
 800215c:	f002 fcfa 	bl	8004b54 <CPU+0x14c0>
 8002160:	70e0      	strb	r0, [r4, #3]
 8002162:	2010      	movs	r0, #16
 8002164:	f7fe f877 	bl	8000256 <CPUCE+0x36>
 8002168:	6861      	ldr	r1, [r4, #4]
 800216a:	4de5      	ldr	r5, [pc, #916]	; (8002500 <CPUCE+0x22e0>)
 800216c:	2001      	movs	r0, #1
 800216e:	f002 fcf3 	bl	8004b58 <CPU+0x14c4>
 8002172:	68e1      	ldr	r1, [r4, #12]
 8002174:	0006      	movs	r6, r0
 8002176:	2001      	movs	r0, #1
 8002178:	f002 fcee 	bl	8004b58 <CPU+0x14c4>
 800217c:	4be2      	ldr	r3, [pc, #904]	; (8002508 <CPUCE+0x22e8>)
 800217e:	0001      	movs	r1, r0
 8002180:	0030      	movs	r0, r6
 8002182:	f002 fce7 	bl	8004b54 <CPU+0x14c0>
 8002186:	2014      	movs	r0, #20
 8002188:	f7fe f865 	bl	8000256 <CPUCE+0x36>
 800218c:	6861      	ldr	r1, [r4, #4]
 800218e:	4ddc      	ldr	r5, [pc, #880]	; (8002500 <CPUCE+0x22e0>)
 8002190:	2001      	movs	r0, #1
 8002192:	f002 fce1 	bl	8004b58 <CPU+0x14c4>
 8002196:	68a1      	ldr	r1, [r4, #8]
 8002198:	0006      	movs	r6, r0
 800219a:	2001      	movs	r0, #1
 800219c:	f002 fcdc 	bl	8004b58 <CPU+0x14c4>
 80021a0:	4bd9      	ldr	r3, [pc, #868]	; (8002508 <CPUCE+0x22e8>)
 80021a2:	0001      	movs	r1, r0
 80021a4:	0030      	movs	r0, r6
 80021a6:	f002 fcd5 	bl	8004b54 <CPU+0x14c0>
 80021aa:	2014      	movs	r0, #20
 80021ac:	f7fe f853 	bl	8000256 <CPUCE+0x36>
 80021b0:	f002 fcd2 	bl	8004b58 <CPU+0x14c4>
 80021b4:	0005      	movs	r5, r0
 80021b6:	6861      	ldr	r1, [r4, #4]
 80021b8:	4bd1      	ldr	r3, [pc, #836]	; (8002500 <CPUCE+0x22e0>)
 80021ba:	2001      	movs	r0, #1
 80021bc:	f002 fcca 	bl	8004b54 <CPU+0x14c0>
 80021c0:	0029      	movs	r1, r5
 80021c2:	4bd1      	ldr	r3, [pc, #836]	; (8002508 <CPUCE+0x22e8>)
 80021c4:	f002 fcc6 	bl	8004b54 <CPU+0x14c0>
 80021c8:	2014      	movs	r0, #20
 80021ca:	f7fe f844 	bl	8000256 <CPUCE+0x36>
 80021ce:	6861      	ldr	r1, [r4, #4]
 80021d0:	4bcb      	ldr	r3, [pc, #812]	; (8002500 <CPUCE+0x22e0>)
 80021d2:	2001      	movs	r0, #1
 80021d4:	f002 fcbe 	bl	8004b54 <CPU+0x14c0>
 80021d8:	78e1      	ldrb	r1, [r4, #3]
 80021da:	4bcb      	ldr	r3, [pc, #812]	; (8002508 <CPUCE+0x22e8>)
 80021dc:	f002 fcba 	bl	8004b54 <CPU+0x14c0>
 80021e0:	2010      	movs	r0, #16
 80021e2:	f7fe f838 	bl	8000256 <CPUCE+0x36>
 80021e6:	2007      	movs	r0, #7
 80021e8:	4bc4      	ldr	r3, [pc, #784]	; (80024fc <CPUCE+0x22dc>)
 80021ea:	5620      	ldrsb	r0, [r4, r0]
 80021ec:	89e5      	ldrh	r5, [r4, #14]
 80021ee:	f002 fcb1 	bl	8004b54 <CPU+0x14c0>
 80021f2:	7b63      	ldrb	r3, [r4, #13]
 80021f4:	1829      	adds	r1, r5, r0
 80021f6:	0409      	lsls	r1, r1, #16
 80021f8:	041b      	lsls	r3, r3, #16
 80021fa:	0c09      	lsrs	r1, r1, #16
 80021fc:	4319      	orrs	r1, r3
 80021fe:	2001      	movs	r0, #1
 8002200:	4bbf      	ldr	r3, [pc, #764]	; (8002500 <CPUCE+0x22e0>)
 8002202:	78e6      	ldrb	r6, [r4, #3]
 8002204:	f002 fca6 	bl	8004b54 <CPU+0x14c0>
 8002208:	4bbf      	ldr	r3, [pc, #764]	; (8002508 <CPUCE+0x22e8>)
 800220a:	0001      	movs	r1, r0
 800220c:	0030      	movs	r0, r6
 800220e:	f002 fca1 	bl	8004b54 <CPU+0x14c0>
 8002212:	2010      	movs	r0, #16
 8002214:	f7fe f81f 	bl	8000256 <CPUCE+0x36>
 8002218:	2007      	movs	r0, #7
 800221a:	4bb8      	ldr	r3, [pc, #736]	; (80024fc <CPUCE+0x22dc>)
 800221c:	5620      	ldrsb	r0, [r4, r0]
 800221e:	8965      	ldrh	r5, [r4, #10]
 8002220:	f002 fc98 	bl	8004b54 <CPU+0x14c0>
 8002224:	7a63      	ldrb	r3, [r4, #9]
 8002226:	1829      	adds	r1, r5, r0
 8002228:	0409      	lsls	r1, r1, #16
 800222a:	041b      	lsls	r3, r3, #16
 800222c:	0c09      	lsrs	r1, r1, #16
 800222e:	4319      	orrs	r1, r3
 8002230:	2001      	movs	r0, #1
 8002232:	4bb3      	ldr	r3, [pc, #716]	; (8002500 <CPUCE+0x22e0>)
 8002234:	78e6      	ldrb	r6, [r4, #3]
 8002236:	f002 fc8d 	bl	8004b54 <CPU+0x14c0>
 800223a:	4bb3      	ldr	r3, [pc, #716]	; (8002508 <CPUCE+0x22e8>)
 800223c:	0001      	movs	r1, r0
 800223e:	0030      	movs	r0, r6
 8002240:	f002 fc88 	bl	8004b54 <CPU+0x14c0>
 8002244:	2010      	movs	r0, #16
 8002246:	f7fe f806 	bl	8000256 <CPUCE+0x36>
 800224a:	f002 fc85 	bl	8004b58 <CPU+0x14c4>
 800224e:	0600      	lsls	r0, r0, #24
 8002250:	4baa      	ldr	r3, [pc, #680]	; (80024fc <CPUCE+0x22dc>)
 8002252:	1600      	asrs	r0, r0, #24
 8002254:	89e5      	ldrh	r5, [r4, #14]
 8002256:	f002 fc7d 	bl	8004b54 <CPU+0x14c0>
 800225a:	7b63      	ldrb	r3, [r4, #13]
 800225c:	1829      	adds	r1, r5, r0
 800225e:	0409      	lsls	r1, r1, #16
 8002260:	041b      	lsls	r3, r3, #16
 8002262:	0c09      	lsrs	r1, r1, #16
 8002264:	4319      	orrs	r1, r3
 8002266:	2001      	movs	r0, #1
 8002268:	4ba5      	ldr	r3, [pc, #660]	; (8002500 <CPUCE+0x22e0>)
 800226a:	78e6      	ldrb	r6, [r4, #3]
 800226c:	f002 fc72 	bl	8004b54 <CPU+0x14c0>
 8002270:	4ba5      	ldr	r3, [pc, #660]	; (8002508 <CPUCE+0x22e8>)
 8002272:	0001      	movs	r1, r0
 8002274:	0030      	movs	r0, r6
 8002276:	f002 fc6d 	bl	8004b54 <CPU+0x14c0>
 800227a:	2010      	movs	r0, #16
 800227c:	f7fd ffeb 	bl	8000256 <CPUCE+0x36>
 8002280:	f002 fc6a 	bl	8004b58 <CPU+0x14c4>
 8002284:	0600      	lsls	r0, r0, #24
 8002286:	4b9d      	ldr	r3, [pc, #628]	; (80024fc <CPUCE+0x22dc>)
 8002288:	1600      	asrs	r0, r0, #24
 800228a:	8965      	ldrh	r5, [r4, #10]
 800228c:	f002 fc62 	bl	8004b54 <CPU+0x14c0>
 8002290:	7a63      	ldrb	r3, [r4, #9]
 8002292:	1829      	adds	r1, r5, r0
 8002294:	0409      	lsls	r1, r1, #16
 8002296:	041b      	lsls	r3, r3, #16
 8002298:	0c09      	lsrs	r1, r1, #16
 800229a:	4319      	orrs	r1, r3
 800229c:	2001      	movs	r0, #1
 800229e:	4b98      	ldr	r3, [pc, #608]	; (8002500 <CPUCE+0x22e0>)
 80022a0:	78e6      	ldrb	r6, [r4, #3]
 80022a2:	f002 fc57 	bl	8004b54 <CPU+0x14c0>
 80022a6:	4b98      	ldr	r3, [pc, #608]	; (8002508 <CPUCE+0x22e8>)
 80022a8:	0001      	movs	r1, r0
 80022aa:	0030      	movs	r0, r6
 80022ac:	f002 fc52 	bl	8004b54 <CPU+0x14c0>
 80022b0:	2010      	movs	r0, #16
 80022b2:	f7fd ffd0 	bl	8000256 <CPUCE+0x36>
 80022b6:	6865      	ldr	r5, [r4, #4]
 80022b8:	4e91      	ldr	r6, [pc, #580]	; (8002500 <CPUCE+0x22e0>)
 80022ba:	0029      	movs	r1, r5
 80022bc:	2001      	movs	r0, #1
 80022be:	f002 fc4c 	bl	8004b5a <CPU+0x14c6>
 80022c2:	68e1      	ldr	r1, [r4, #12]
 80022c4:	0007      	movs	r7, r0
 80022c6:	2001      	movs	r0, #1
 80022c8:	f002 fc47 	bl	8004b5a <CPU+0x14c6>
 80022cc:	4b8f      	ldr	r3, [pc, #572]	; (800250c <CPUCE+0x22ec>)
 80022ce:	0001      	movs	r1, r0
 80022d0:	0038      	movs	r0, r7
 80022d2:	f002 fc3f 	bl	8004b54 <CPU+0x14c0>
 80022d6:	0029      	movs	r1, r5
 80022d8:	0002      	movs	r2, r0
 80022da:	4b8d      	ldr	r3, [pc, #564]	; (8002510 <CPUCE+0x22f0>)
 80022dc:	2001      	movs	r0, #1
 80022de:	f002 fc39 	bl	8004b54 <CPU+0x14c0>
 80022e2:	2014      	movs	r0, #20
 80022e4:	f7fd ffb7 	bl	8000256 <CPUCE+0x36>
 80022e8:	6865      	ldr	r5, [r4, #4]
 80022ea:	4e85      	ldr	r6, [pc, #532]	; (8002500 <CPUCE+0x22e0>)
 80022ec:	0029      	movs	r1, r5
 80022ee:	2001      	movs	r0, #1
 80022f0:	f002 fc33 	bl	8004b5a <CPU+0x14c6>
 80022f4:	68a1      	ldr	r1, [r4, #8]
 80022f6:	0007      	movs	r7, r0
 80022f8:	2001      	movs	r0, #1
 80022fa:	f002 fc2e 	bl	8004b5a <CPU+0x14c6>
 80022fe:	4b83      	ldr	r3, [pc, #524]	; (800250c <CPUCE+0x22ec>)
 8002300:	0001      	movs	r1, r0
 8002302:	0038      	movs	r0, r7
 8002304:	f002 fc26 	bl	8004b54 <CPU+0x14c0>
 8002308:	0029      	movs	r1, r5
 800230a:	0002      	movs	r2, r0
 800230c:	4b80      	ldr	r3, [pc, #512]	; (8002510 <CPUCE+0x22f0>)
 800230e:	2001      	movs	r0, #1
 8002310:	f002 fc20 	bl	8004b54 <CPU+0x14c0>
 8002314:	2014      	movs	r0, #20
 8002316:	f7fd ff9e 	bl	8000256 <CPUCE+0x36>
 800231a:	f002 fc1d 	bl	8004b58 <CPU+0x14c4>
 800231e:	0005      	movs	r5, r0
 8002320:	6864      	ldr	r4, [r4, #4]
 8002322:	4b77      	ldr	r3, [pc, #476]	; (8002500 <CPUCE+0x22e0>)
 8002324:	0021      	movs	r1, r4
 8002326:	2001      	movs	r0, #1
 8002328:	f002 fc14 	bl	8004b54 <CPU+0x14c0>
 800232c:	0029      	movs	r1, r5
 800232e:	4b77      	ldr	r3, [pc, #476]	; (800250c <CPUCE+0x22ec>)
 8002330:	f002 fc10 	bl	8004b54 <CPU+0x14c0>
 8002334:	0021      	movs	r1, r4
 8002336:	0002      	movs	r2, r0
 8002338:	4b75      	ldr	r3, [pc, #468]	; (8002510 <CPUCE+0x22f0>)
 800233a:	2001      	movs	r0, #1
 800233c:	f002 fc0a 	bl	8004b54 <CPU+0x14c0>
 8002340:	2014      	movs	r0, #20
 8002342:	f7fd ff88 	bl	8000256 <CPUCE+0x36>
 8002346:	6865      	ldr	r5, [r4, #4]
 8002348:	4b6d      	ldr	r3, [pc, #436]	; (8002500 <CPUCE+0x22e0>)
 800234a:	0029      	movs	r1, r5
 800234c:	2001      	movs	r0, #1
 800234e:	f002 fc01 	bl	8004b54 <CPU+0x14c0>
 8002352:	78e1      	ldrb	r1, [r4, #3]
 8002354:	4b6d      	ldr	r3, [pc, #436]	; (800250c <CPUCE+0x22ec>)
 8002356:	f002 fbfd 	bl	8004b54 <CPU+0x14c0>
 800235a:	0029      	movs	r1, r5
 800235c:	0002      	movs	r2, r0
 800235e:	4b6c      	ldr	r3, [pc, #432]	; (8002510 <CPUCE+0x22f0>)
 8002360:	2001      	movs	r0, #1
 8002362:	f002 fbf7 	bl	8004b54 <CPU+0x14c0>
 8002366:	2010      	movs	r0, #16
 8002368:	f7fd ff75 	bl	8000256 <CPUCE+0x36>
 800236c:	2007      	movs	r0, #7
 800236e:	4b63      	ldr	r3, [pc, #396]	; (80024fc <CPUCE+0x22dc>)
 8002370:	5620      	ldrsb	r0, [r4, r0]
 8002372:	89e5      	ldrh	r5, [r4, #14]
 8002374:	f002 fbee 	bl	8004b54 <CPU+0x14c0>
 8002378:	7b63      	ldrb	r3, [r4, #13]
 800237a:	1829      	adds	r1, r5, r0
 800237c:	0409      	lsls	r1, r1, #16
 800237e:	041b      	lsls	r3, r3, #16
 8002380:	0c09      	lsrs	r1, r1, #16
 8002382:	4319      	orrs	r1, r3
 8002384:	2001      	movs	r0, #1
 8002386:	4b5e      	ldr	r3, [pc, #376]	; (8002500 <CPUCE+0x22e0>)
 8002388:	78e6      	ldrb	r6, [r4, #3]
 800238a:	f002 fbe3 	bl	8004b54 <CPU+0x14c0>
 800238e:	4b5f      	ldr	r3, [pc, #380]	; (800250c <CPUCE+0x22ec>)
 8002390:	0001      	movs	r1, r0
 8002392:	0030      	movs	r0, r6
 8002394:	f002 fbde 	bl	8004b54 <CPU+0x14c0>
 8002398:	70e0      	strb	r0, [r4, #3]
 800239a:	2010      	movs	r0, #16
 800239c:	f7fd ff5b 	bl	8000256 <CPUCE+0x36>
 80023a0:	2007      	movs	r0, #7
 80023a2:	4b56      	ldr	r3, [pc, #344]	; (80024fc <CPUCE+0x22dc>)
 80023a4:	5620      	ldrsb	r0, [r4, r0]
 80023a6:	8965      	ldrh	r5, [r4, #10]
 80023a8:	f002 fbd4 	bl	8004b54 <CPU+0x14c0>
 80023ac:	7a63      	ldrb	r3, [r4, #9]
 80023ae:	1829      	adds	r1, r5, r0
 80023b0:	0409      	lsls	r1, r1, #16
 80023b2:	041b      	lsls	r3, r3, #16
 80023b4:	0c09      	lsrs	r1, r1, #16
 80023b6:	4319      	orrs	r1, r3
 80023b8:	2001      	movs	r0, #1
 80023ba:	4b51      	ldr	r3, [pc, #324]	; (8002500 <CPUCE+0x22e0>)
 80023bc:	78e6      	ldrb	r6, [r4, #3]
 80023be:	f002 fbc9 	bl	8004b54 <CPU+0x14c0>
 80023c2:	4b52      	ldr	r3, [pc, #328]	; (800250c <CPUCE+0x22ec>)
 80023c4:	0001      	movs	r1, r0
 80023c6:	0030      	movs	r0, r6
 80023c8:	f002 fbc4 	bl	8004b54 <CPU+0x14c0>
 80023cc:	70e0      	strb	r0, [r4, #3]
 80023ce:	2010      	movs	r0, #16
 80023d0:	f7fd ff41 	bl	8000256 <CPUCE+0x36>
 80023d4:	f002 fbc0 	bl	8004b58 <CPU+0x14c4>
 80023d8:	0600      	lsls	r0, r0, #24
 80023da:	4b48      	ldr	r3, [pc, #288]	; (80024fc <CPUCE+0x22dc>)
 80023dc:	1600      	asrs	r0, r0, #24
 80023de:	89e5      	ldrh	r5, [r4, #14]
 80023e0:	f002 fbb8 	bl	8004b54 <CPU+0x14c0>
 80023e4:	7b63      	ldrb	r3, [r4, #13]
 80023e6:	1829      	adds	r1, r5, r0
 80023e8:	0409      	lsls	r1, r1, #16
 80023ea:	041b      	lsls	r3, r3, #16
 80023ec:	0c09      	lsrs	r1, r1, #16
 80023ee:	4319      	orrs	r1, r3
 80023f0:	2001      	movs	r0, #1
 80023f2:	4b43      	ldr	r3, [pc, #268]	; (8002500 <CPUCE+0x22e0>)
 80023f4:	78e6      	ldrb	r6, [r4, #3]
 80023f6:	f002 fbad 	bl	8004b54 <CPU+0x14c0>
 80023fa:	4b44      	ldr	r3, [pc, #272]	; (800250c <CPUCE+0x22ec>)
 80023fc:	0001      	movs	r1, r0
 80023fe:	0030      	movs	r0, r6
 8002400:	f002 fba8 	bl	8004b54 <CPU+0x14c0>
 8002404:	70e0      	strb	r0, [r4, #3]
 8002406:	2010      	movs	r0, #16
 8002408:	f7fd ff25 	bl	8000256 <CPUCE+0x36>
 800240c:	f002 fba4 	bl	8004b58 <CPU+0x14c4>
 8002410:	0600      	lsls	r0, r0, #24
 8002412:	4b3a      	ldr	r3, [pc, #232]	; (80024fc <CPUCE+0x22dc>)
 8002414:	1600      	asrs	r0, r0, #24
 8002416:	8965      	ldrh	r5, [r4, #10]
 8002418:	f002 fb9c 	bl	8004b54 <CPU+0x14c0>
 800241c:	7a63      	ldrb	r3, [r4, #9]
 800241e:	1829      	adds	r1, r5, r0
 8002420:	0409      	lsls	r1, r1, #16
 8002422:	041b      	lsls	r3, r3, #16
 8002424:	0c09      	lsrs	r1, r1, #16
 8002426:	4319      	orrs	r1, r3
 8002428:	2001      	movs	r0, #1
 800242a:	4b35      	ldr	r3, [pc, #212]	; (8002500 <CPUCE+0x22e0>)
 800242c:	78e6      	ldrb	r6, [r4, #3]
 800242e:	f002 fb91 	bl	8004b54 <CPU+0x14c0>
 8002432:	4b36      	ldr	r3, [pc, #216]	; (800250c <CPUCE+0x22ec>)
 8002434:	0001      	movs	r1, r0
 8002436:	0030      	movs	r0, r6
 8002438:	f002 fb8c 	bl	8004b54 <CPU+0x14c0>
 800243c:	70e0      	strb	r0, [r4, #3]
 800243e:	2010      	movs	r0, #16
 8002440:	f7fd ff09 	bl	8000256 <CPUCE+0x36>
 8002444:	6865      	ldr	r5, [r4, #4]
 8002446:	4e2e      	ldr	r6, [pc, #184]	; (8002500 <CPUCE+0x22e0>)
 8002448:	0029      	movs	r1, r5
 800244a:	2001      	movs	r0, #1
 800244c:	f002 fb85 	bl	8004b5a <CPU+0x14c6>
 8002450:	68e1      	ldr	r1, [r4, #12]
 8002452:	0007      	movs	r7, r0
 8002454:	2001      	movs	r0, #1
 8002456:	f002 fb80 	bl	8004b5a <CPU+0x14c6>
 800245a:	4b2e      	ldr	r3, [pc, #184]	; (8002514 <CPUCE+0x22f4>)
 800245c:	0001      	movs	r1, r0
 800245e:	0038      	movs	r0, r7
 8002460:	f002 fb78 	bl	8004b54 <CPU+0x14c0>
 8002464:	0029      	movs	r1, r5
 8002466:	0002      	movs	r2, r0
 8002468:	4b29      	ldr	r3, [pc, #164]	; (8002510 <CPUCE+0x22f0>)
 800246a:	2001      	movs	r0, #1
 800246c:	f002 fb72 	bl	8004b54 <CPU+0x14c0>
 8002470:	2014      	movs	r0, #20
 8002472:	f7fd fef0 	bl	8000256 <CPUCE+0x36>
 8002476:	6865      	ldr	r5, [r4, #4]
 8002478:	4e21      	ldr	r6, [pc, #132]	; (8002500 <CPUCE+0x22e0>)
 800247a:	0029      	movs	r1, r5
 800247c:	2001      	movs	r0, #1
 800247e:	f002 fb6c 	bl	8004b5a <CPU+0x14c6>
 8002482:	68a1      	ldr	r1, [r4, #8]
 8002484:	0007      	movs	r7, r0
 8002486:	2001      	movs	r0, #1
 8002488:	f002 fb67 	bl	8004b5a <CPU+0x14c6>
 800248c:	4b21      	ldr	r3, [pc, #132]	; (8002514 <CPUCE+0x22f4>)
 800248e:	0001      	movs	r1, r0
 8002490:	0038      	movs	r0, r7
 8002492:	f002 fb5f 	bl	8004b54 <CPU+0x14c0>
 8002496:	0029      	movs	r1, r5
 8002498:	0002      	movs	r2, r0
 800249a:	4b1d      	ldr	r3, [pc, #116]	; (8002510 <CPUCE+0x22f0>)
 800249c:	2001      	movs	r0, #1
 800249e:	f002 fb59 	bl	8004b54 <CPU+0x14c0>
 80024a2:	2014      	movs	r0, #20
 80024a4:	f7fd fed7 	bl	8000256 <CPUCE+0x36>
 80024a8:	f002 fb56 	bl	8004b58 <CPU+0x14c4>
 80024ac:	0005      	movs	r5, r0
 80024ae:	6864      	ldr	r4, [r4, #4]
 80024b0:	4b13      	ldr	r3, [pc, #76]	; (8002500 <CPUCE+0x22e0>)
 80024b2:	0021      	movs	r1, r4
 80024b4:	2001      	movs	r0, #1
 80024b6:	f002 fb4d 	bl	8004b54 <CPU+0x14c0>
 80024ba:	0029      	movs	r1, r5
 80024bc:	4b15      	ldr	r3, [pc, #84]	; (8002514 <CPUCE+0x22f4>)
 80024be:	f002 fb49 	bl	8004b54 <CPU+0x14c0>
 80024c2:	0021      	movs	r1, r4
 80024c4:	0002      	movs	r2, r0
 80024c6:	4b12      	ldr	r3, [pc, #72]	; (8002510 <CPUCE+0x22f0>)
 80024c8:	2001      	movs	r0, #1
 80024ca:	f002 fb43 	bl	8004b54 <CPU+0x14c0>
 80024ce:	2014      	movs	r0, #20
 80024d0:	f7fd fec1 	bl	8000256 <CPUCE+0x36>
 80024d4:	6865      	ldr	r5, [r4, #4]
 80024d6:	4b0a      	ldr	r3, [pc, #40]	; (8002500 <CPUCE+0x22e0>)
 80024d8:	0029      	movs	r1, r5
 80024da:	2001      	movs	r0, #1
 80024dc:	f002 fb3a 	bl	8004b54 <CPU+0x14c0>
 80024e0:	78e1      	ldrb	r1, [r4, #3]
 80024e2:	4b0c      	ldr	r3, [pc, #48]	; (8002514 <CPUCE+0x22f4>)
 80024e4:	f002 fb36 	bl	8004b54 <CPU+0x14c0>
 80024e8:	0029      	movs	r1, r5
 80024ea:	0002      	movs	r2, r0
 80024ec:	4b08      	ldr	r3, [pc, #32]	; (8002510 <CPUCE+0x22f0>)
 80024ee:	2001      	movs	r0, #1
 80024f0:	f002 fb30 	bl	8004b54 <CPU+0x14c0>
 80024f4:	2010      	movs	r0, #16
 80024f6:	f7fd feae 	bl	8000256 <CPUCE+0x36>
 80024fa:	46c0      	nop			; (mov r8, r8)
 80024fc:	08005511 	stmdaeq	r0, {r0, r4, r8, sl, ip, lr}
 8002500:	08004b5d 	stmdaeq	r0, {r0, r2, r3, r4, r6, r8, r9, fp, lr}
 8002504:	080053b5 	stmdaeq	r0, {r0, r2, r4, r5, r7, r8, r9, ip, lr}
 8002508:	08005125 	stmdaeq	r0, {r0, r2, r5, r8, ip, lr}
 800250c:	08005365 	stmdaeq	r0, {r0, r2, r5, r6, r8, r9, ip, lr}
 8002510:	08004be9 	stmdaeq	r0, {r0, r3, r5, r6, r7, r8, r9, fp, lr}
 8002514:	0800538d 	stmdaeq	r0, {r0, r2, r3, r7, r8, r9, ip, lr}
 8002518:	2007      	movs	r0, #7
 800251a:	4b24      	ldr	r3, [pc, #144]	; (80025ac <CPUCE+0x238c>)
 800251c:	5620      	ldrsb	r0, [r4, r0]
 800251e:	89e5      	ldrh	r5, [r4, #14]
 8002520:	f002 fb18 	bl	8004b54 <CPU+0x14c0>
 8002524:	7b63      	ldrb	r3, [r4, #13]
 8002526:	1829      	adds	r1, r5, r0
 8002528:	0409      	lsls	r1, r1, #16
 800252a:	041b      	lsls	r3, r3, #16
 800252c:	0c09      	lsrs	r1, r1, #16
 800252e:	4319      	orrs	r1, r3
 8002530:	2001      	movs	r0, #1
 8002532:	4b1f      	ldr	r3, [pc, #124]	; (80025b0 <CPUCE+0x2390>)
 8002534:	78e6      	ldrb	r6, [r4, #3]
 8002536:	f002 fb0d 	bl	8004b54 <CPU+0x14c0>
 800253a:	4b1e      	ldr	r3, [pc, #120]	; (80025b4 <CPUCE+0x2394>)
 800253c:	0001      	movs	r1, r0
 800253e:	0030      	movs	r0, r6
 8002540:	f002 fb08 	bl	8004b54 <CPU+0x14c0>
 8002544:	70e0      	strb	r0, [r4, #3]
 8002546:	2010      	movs	r0, #16
 8002548:	f7fd fe85 	bl	8000256 <CPUCE+0x36>
 800254c:	2007      	movs	r0, #7
 800254e:	4b17      	ldr	r3, [pc, #92]	; (80025ac <CPUCE+0x238c>)
 8002550:	5620      	ldrsb	r0, [r4, r0]
 8002552:	8965      	ldrh	r5, [r4, #10]
 8002554:	f002 fafe 	bl	8004b54 <CPU+0x14c0>
 8002558:	7a63      	ldrb	r3, [r4, #9]
 800255a:	1829      	adds	r1, r5, r0
 800255c:	0409      	lsls	r1, r1, #16
 800255e:	041b      	lsls	r3, r3, #16
 8002560:	0c09      	lsrs	r1, r1, #16
 8002562:	4319      	orrs	r1, r3
 8002564:	2001      	movs	r0, #1
 8002566:	4b12      	ldr	r3, [pc, #72]	; (80025b0 <CPUCE+0x2390>)
 8002568:	78e6      	ldrb	r6, [r4, #3]
 800256a:	f002 faf3 	bl	8004b54 <CPU+0x14c0>
 800256e:	4b11      	ldr	r3, [pc, #68]	; (80025b4 <CPUCE+0x2394>)
 8002570:	0001      	movs	r1, r0
 8002572:	0030      	movs	r0, r6
 8002574:	f002 faee 	bl	8004b54 <CPU+0x14c0>
 8002578:	70e0      	strb	r0, [r4, #3]
 800257a:	2010      	movs	r0, #16
 800257c:	f7fd fe6b 	bl	8000256 <CPUCE+0x36>
 8002580:	0600      	lsls	r0, r0, #24
 8002582:	4b0a      	ldr	r3, [pc, #40]	; (80025ac <CPUCE+0x238c>)
 8002584:	1600      	asrs	r0, r0, #24
 8002586:	f002 fae5 	bl	8004b54 <CPU+0x14c0>
 800258a:	4b0b      	ldr	r3, [pc, #44]	; (80025b8 <CPUCE+0x2398>)
 800258c:	f002 fae2 	bl	8004b54 <CPU+0x14c0>
 8002590:	200c      	movs	r0, #12
 8002592:	f7fd fe60 	bl	8000256 <CPUCE+0x36>
 8002596:	0200      	lsls	r0, r0, #8
 8002598:	0001      	movs	r1, r0
 800259a:	4b08      	ldr	r3, [pc, #32]	; (80025bc <CPUCE+0x239c>)
 800259c:	2000      	movs	r0, #0
 800259e:	31ce      	adds	r1, #206	; 0xce
 80025a0:	f002 fad8 	bl	8004b54 <CPU+0x14c0>
 80025a4:	2004      	movs	r0, #4
 80025a6:	f7fd fe56 	bl	8000256 <CPUCE+0x36>
 80025aa:	46c0      	nop			; (mov r8, r8)
 80025ac:	08005511 	stmdaeq	r0, {r0, r4, r8, sl, ip, lr}
 80025b0:	08004b5d 	stmdaeq	r0, {r0, r2, r3, r4, r6, r8, r9, fp, lr}
 80025b4:	0800538d 	stmdaeq	r0, {r0, r2, r3, r7, r8, r9, ip, lr}
 80025b8:	080054f5 	stmdaeq	r0, {r0, r2, r4, r5, r6, r7, sl, ip, lr}
 80025bc:	080060d5 	stmdaeq	r0, {r0, r2, r4, r6, r7, sp, lr}

080025c0 <CPUSPCE>:
 80025c0:	b510      	push	{r4, lr}
 80025c2:	4b08      	ldr	r3, [pc, #32]	; (80025e4 <CPUSPCE+0x24>)
 80025c4:	f002 fac6 	bl	8004b54 <CPU+0x14c0>
 80025c8:	2320      	movs	r3, #32
 80025ca:	4a07      	ldr	r2, [pc, #28]	; (80025e8 <CPUSPCE+0x28>)
 80025cc:	54d0      	strb	r0, [r2, r3]
 80025ce:	4b07      	ldr	r3, [pc, #28]	; (80025ec <CPUSPCE+0x2c>)
 80025d0:	0400      	lsls	r0, r0, #16
 80025d2:	18c1      	adds	r1, r0, r3
 80025d4:	2000      	movs	r0, #0
 80025d6:	4b06      	ldr	r3, [pc, #24]	; (80025f0 <CPUSPCE+0x30>)
 80025d8:	f002 fabc 	bl	8004b54 <CPU+0x14c0>
 80025dc:	2040      	movs	r0, #64	; 0x40
 80025de:	bc10      	pop	{r4}
 80025e0:	bc02      	pop	{r1}
 80025e2:	4708      	bx	r1
 80025e4:	08005449 	stmdaeq	r0, {r0, r3, r6, sl, ip, lr}
 80025e8:	02000004 	andeq	r0, r0, #4
 80025ec:	0000ceff 	strdeq	ip, [r0], -pc	; <UNPREDICTABLE>
 80025f0:	080060d5 	stmdaeq	r0, {r0, r2, r4, r6, r7, sp, lr}

080025f4 <CPUSPCF>:
 80025f4:	b570      	push	{r4, r5, r6, lr}
 80025f6:	4b71      	ldr	r3, [pc, #452]	; (80027bc <CPUSPCF+0x1c8>)
 80025f8:	f002 faac 	bl	8004b54 <CPU+0x14c0>
 80025fc:	2320      	movs	r3, #32
 80025fe:	4c70      	ldr	r4, [pc, #448]	; (80027c0 <CPUSPCF+0x1cc>)
 8002600:	54e0      	strb	r0, [r4, r3]
 8002602:	28ff      	cmp	r0, #255	; 0xff
 8002604:	d900      	bls.n	8002608 <CPUSPCF+0x14>
 8002606:	e0cf      	b.n	80027a8 <CPUSPCF+0x1b4>
 8002608:	4a6e      	ldr	r2, [pc, #440]	; (80027c4 <CPUSPCF+0x1d0>)
 800260a:	0083      	lsls	r3, r0, #2
 800260c:	58d3      	ldr	r3, [r2, r3]
 800260e:	469f      	mov	pc, r3
 8002610:	496d      	ldr	r1, [pc, #436]	; (80027c8 <CPUSPCF+0x1d4>)
 8002612:	0400      	lsls	r0, r0, #16
 8002614:	4301      	orrs	r1, r0
 8002616:	4b6d      	ldr	r3, [pc, #436]	; (80027cc <CPUSPCF+0x1d8>)
 8002618:	2001      	movs	r0, #1
 800261a:	f002 fa9b 	bl	8004b54 <CPU+0x14c0>
 800261e:	2510      	movs	r5, #16
 8002620:	0028      	movs	r0, r5
 8002622:	bc70      	pop	{r4, r5, r6}
 8002624:	bc02      	pop	{r1}
 8002626:	4708      	bx	r1
 8002628:	8960      	ldrh	r0, [r4, #10]
 800262a:	4b69      	ldr	r3, [pc, #420]	; (80027d0 <CPUSPCF+0x1dc>)
 800262c:	f002 fa92 	bl	8004b54 <CPU+0x14c0>
 8002630:	2510      	movs	r5, #16
 8002632:	8160      	strh	r0, [r4, #10]
 8002634:	e7f4      	b.n	8002620 <CPUSPCF+0x2c>
 8002636:	8960      	ldrh	r0, [r4, #10]
 8002638:	4b66      	ldr	r3, [pc, #408]	; (80027d4 <CPUSPCF+0x1e0>)
 800263a:	f002 fa8b 	bl	8004b54 <CPU+0x14c0>
 800263e:	2510      	movs	r5, #16
 8002640:	8160      	strh	r0, [r4, #10]
 8002642:	e7ed      	b.n	8002620 <CPUSPCF+0x2c>
 8002644:	4960      	ldr	r1, [pc, #384]	; (80027c8 <CPUSPCF+0x1d4>)
 8002646:	0400      	lsls	r0, r0, #16
 8002648:	4301      	orrs	r1, r0
 800264a:	4b60      	ldr	r3, [pc, #384]	; (80027cc <CPUSPCF+0x1d8>)
 800264c:	2001      	movs	r0, #1
 800264e:	f002 fa81 	bl	8004b54 <CPU+0x14c0>
 8002652:	2514      	movs	r5, #20
 8002654:	e7e4      	b.n	8002620 <CPUSPCF+0x2c>
 8002656:	2380      	movs	r3, #128	; 0x80
 8002658:	7d62      	ldrb	r2, [r4, #21]
 800265a:	019b      	lsls	r3, r3, #6
 800265c:	4313      	orrs	r3, r2
 800265e:	80e3      	strh	r3, [r4, #6]
 8002660:	2514      	movs	r5, #20
 8002662:	e7dd      	b.n	8002620 <CPUSPCF+0x2c>
 8002664:	2380      	movs	r3, #128	; 0x80
 8002666:	7d62      	ldrb	r2, [r4, #21]
 8002668:	019b      	lsls	r3, r3, #6
 800266a:	4313      	orrs	r3, r2
 800266c:	8163      	strh	r3, [r4, #10]
 800266e:	2514      	movs	r5, #20
 8002670:	e7d6      	b.n	8002620 <CPUSPCF+0x2c>
 8002672:	2380      	movs	r3, #128	; 0x80
 8002674:	7d62      	ldrb	r2, [r4, #21]
 8002676:	019b      	lsls	r3, r3, #6
 8002678:	4313      	orrs	r3, r2
 800267a:	8063      	strh	r3, [r4, #2]
 800267c:	2514      	movs	r5, #20
 800267e:	e7cf      	b.n	8002620 <CPUSPCF+0x2c>
 8002680:	250c      	movs	r5, #12
 8002682:	e7cd      	b.n	8002620 <CPUSPCF+0x2c>
 8002684:	8a60      	ldrh	r0, [r4, #18]
 8002686:	4b53      	ldr	r3, [pc, #332]	; (80027d4 <CPUSPCF+0x1e0>)
 8002688:	f002 fa64 	bl	8004b54 <CPU+0x14c0>
 800268c:	2510      	movs	r5, #16
 800268e:	8260      	strh	r0, [r4, #18]
 8002690:	e7c6      	b.n	8002620 <CPUSPCF+0x2c>
 8002692:	7fa3      	ldrb	r3, [r4, #30]
 8002694:	2510      	movs	r5, #16
 8002696:	079b      	lsls	r3, r3, #30
 8002698:	d4c2      	bmi.n	8002620 <CPUSPCF+0x2c>
 800269a:	8860      	ldrh	r0, [r4, #2]
 800269c:	4b4c      	ldr	r3, [pc, #304]	; (80027d0 <CPUSPCF+0x1dc>)
 800269e:	f002 fa59 	bl	8004b54 <CPU+0x14c0>
 80026a2:	8060      	strh	r0, [r4, #2]
 80026a4:	e7bc      	b.n	8002620 <CPUSPCF+0x2c>
 80026a6:	8860      	ldrh	r0, [r4, #2]
 80026a8:	4b49      	ldr	r3, [pc, #292]	; (80027d0 <CPUSPCF+0x1dc>)
 80026aa:	f002 fa53 	bl	8004b54 <CPU+0x14c0>
 80026ae:	2510      	movs	r5, #16
 80026b0:	8060      	strh	r0, [r4, #2]
 80026b2:	e7b5      	b.n	8002620 <CPUSPCF+0x2c>
 80026b4:	2380      	movs	r3, #128	; 0x80
 80026b6:	7d62      	ldrb	r2, [r4, #21]
 80026b8:	019b      	lsls	r3, r3, #6
 80026ba:	4313      	orrs	r3, r2
 80026bc:	81e3      	strh	r3, [r4, #14]
 80026be:	2514      	movs	r5, #20
 80026c0:	e7ae      	b.n	8002620 <CPUSPCF+0x2c>
 80026c2:	8a60      	ldrh	r0, [r4, #18]
 80026c4:	4b42      	ldr	r3, [pc, #264]	; (80027d0 <CPUSPCF+0x1dc>)
 80026c6:	f002 fa45 	bl	8004b54 <CPU+0x14c0>
 80026ca:	2510      	movs	r5, #16
 80026cc:	8260      	strh	r0, [r4, #18]
 80026ce:	e7a7      	b.n	8002620 <CPUSPCF+0x2c>
 80026d0:	7fa3      	ldrb	r3, [r4, #30]
 80026d2:	2510      	movs	r5, #16
 80026d4:	079b      	lsls	r3, r3, #30
 80026d6:	d4a3      	bmi.n	8002620 <CPUSPCF+0x2c>
 80026d8:	88e0      	ldrh	r0, [r4, #6]
 80026da:	4b3d      	ldr	r3, [pc, #244]	; (80027d0 <CPUSPCF+0x1dc>)
 80026dc:	f002 fa3a 	bl	8004b54 <CPU+0x14c0>
 80026e0:	80e0      	strh	r0, [r4, #6]
 80026e2:	e79d      	b.n	8002620 <CPUSPCF+0x2c>
 80026e4:	88e0      	ldrh	r0, [r4, #6]
 80026e6:	4b3a      	ldr	r3, [pc, #232]	; (80027d0 <CPUSPCF+0x1dc>)
 80026e8:	f002 fa34 	bl	8004b54 <CPU+0x14c0>
 80026ec:	2510      	movs	r5, #16
 80026ee:	80e0      	strh	r0, [r4, #6]
 80026f0:	e796      	b.n	8002620 <CPUSPCF+0x2c>
 80026f2:	7fa3      	ldrb	r3, [r4, #30]
 80026f4:	2510      	movs	r5, #16
 80026f6:	079b      	lsls	r3, r3, #30
 80026f8:	d500      	bpl.n	80026fc <CPUSPCF+0x108>
 80026fa:	e791      	b.n	8002620 <CPUSPCF+0x2c>
 80026fc:	8860      	ldrh	r0, [r4, #2]
 80026fe:	4b35      	ldr	r3, [pc, #212]	; (80027d4 <CPUSPCF+0x1e0>)
 8002700:	f002 fa28 	bl	8004b54 <CPU+0x14c0>
 8002704:	8060      	strh	r0, [r4, #2]
 8002706:	e78b      	b.n	8002620 <CPUSPCF+0x2c>
 8002708:	7fa3      	ldrb	r3, [r4, #30]
 800270a:	2510      	movs	r5, #16
 800270c:	079b      	lsls	r3, r3, #30
 800270e:	d500      	bpl.n	8002712 <CPUSPCF+0x11e>
 8002710:	e786      	b.n	8002620 <CPUSPCF+0x2c>
 8002712:	88e0      	ldrh	r0, [r4, #6]
 8002714:	4b2f      	ldr	r3, [pc, #188]	; (80027d4 <CPUSPCF+0x1e0>)
 8002716:	f002 fa1d 	bl	8004b54 <CPU+0x14c0>
 800271a:	80e0      	strh	r0, [r4, #6]
 800271c:	e780      	b.n	8002620 <CPUSPCF+0x2c>
 800271e:	2518      	movs	r5, #24
 8002720:	e77e      	b.n	8002620 <CPUSPCF+0x2c>
 8002722:	8860      	ldrh	r0, [r4, #2]
 8002724:	4b2b      	ldr	r3, [pc, #172]	; (80027d4 <CPUSPCF+0x1e0>)
 8002726:	f002 fa15 	bl	8004b54 <CPU+0x14c0>
 800272a:	2510      	movs	r5, #16
 800272c:	8060      	strh	r0, [r4, #2]
 800272e:	e777      	b.n	8002620 <CPUSPCF+0x2c>
 8002730:	239a      	movs	r3, #154	; 0x9a
 8002732:	7d62      	ldrb	r2, [r4, #21]
 8002734:	01db      	lsls	r3, r3, #7
 8002736:	4313      	orrs	r3, r2
 8002738:	80e3      	strh	r3, [r4, #6]
 800273a:	2518      	movs	r5, #24
 800273c:	e770      	b.n	8002620 <CPUSPCF+0x2c>
 800273e:	88e0      	ldrh	r0, [r4, #6]
 8002740:	4b24      	ldr	r3, [pc, #144]	; (80027d4 <CPUSPCF+0x1e0>)
 8002742:	f002 fa07 	bl	8004b54 <CPU+0x14c0>
 8002746:	2510      	movs	r5, #16
 8002748:	e76a      	b.n	8002620 <CPUSPCF+0x2c>
 800274a:	8860      	ldrh	r0, [r4, #2]
 800274c:	4b21      	ldr	r3, [pc, #132]	; (80027d4 <CPUSPCF+0x1e0>)
 800274e:	f002 fa01 	bl	8004b54 <CPU+0x14c0>
 8002752:	2510      	movs	r5, #16
 8002754:	e764      	b.n	8002620 <CPUSPCF+0x2c>
 8002756:	239a      	movs	r3, #154	; 0x9a
 8002758:	7d62      	ldrb	r2, [r4, #21]
 800275a:	01db      	lsls	r3, r3, #7
 800275c:	4313      	orrs	r3, r2
 800275e:	8063      	strh	r3, [r4, #2]
 8002760:	2518      	movs	r5, #24
 8002762:	e75d      	b.n	8002620 <CPUSPCF+0x2c>
 8002764:	239a      	movs	r3, #154	; 0x9a
 8002766:	7d62      	ldrb	r2, [r4, #21]
 8002768:	01db      	lsls	r3, r3, #7
 800276a:	4313      	orrs	r3, r2
 800276c:	8163      	strh	r3, [r4, #10]
 800276e:	2518      	movs	r5, #24
 8002770:	e756      	b.n	8002620 <CPUSPCF+0x2c>
 8002772:	239a      	movs	r3, #154	; 0x9a
 8002774:	7d62      	ldrb	r2, [r4, #21]
 8002776:	01db      	lsls	r3, r3, #7
 8002778:	4313      	orrs	r3, r2
 800277a:	81e3      	strh	r3, [r4, #14]
 800277c:	2518      	movs	r5, #24
 800277e:	e74f      	b.n	8002620 <CPUSPCF+0x2c>
 8002780:	4911      	ldr	r1, [pc, #68]	; (80027c8 <CPUSPCF+0x1d4>)
 8002782:	0400      	lsls	r0, r0, #16
 8002784:	4301      	orrs	r1, r0
 8002786:	4b11      	ldr	r3, [pc, #68]	; (80027cc <CPUSPCF+0x1d8>)
 8002788:	2001      	movs	r0, #1
 800278a:	f002 f9e3 	bl	8004b54 <CPU+0x14c0>
 800278e:	2518      	movs	r5, #24
 8002790:	e746      	b.n	8002620 <CPUSPCF+0x2c>
 8002792:	7d63      	ldrb	r3, [r4, #21]
 8002794:	2514      	movs	r5, #20
 8002796:	81e3      	strh	r3, [r4, #14]
 8002798:	e742      	b.n	8002620 <CPUSPCF+0x2c>
 800279a:	88e0      	ldrh	r0, [r4, #6]
 800279c:	4b0d      	ldr	r3, [pc, #52]	; (80027d4 <CPUSPCF+0x1e0>)
 800279e:	f002 f9d9 	bl	8004b54 <CPU+0x14c0>
 80027a2:	2510      	movs	r5, #16
 80027a4:	80e0      	strh	r0, [r4, #6]
 80027a6:	e73b      	b.n	8002620 <CPUSPCF+0x2c>
 80027a8:	4b07      	ldr	r3, [pc, #28]	; (80027c8 <CPUSPCF+0x1d4>)
 80027aa:	0400      	lsls	r0, r0, #16
 80027ac:	18c1      	adds	r1, r0, r3
 80027ae:	2000      	movs	r0, #0
 80027b0:	4b06      	ldr	r3, [pc, #24]	; (80027cc <CPUSPCF+0x1d8>)
 80027b2:	f002 f9cf 	bl	8004b54 <CPU+0x14c0>
 80027b6:	2540      	movs	r5, #64	; 0x40
 80027b8:	e732      	b.n	8002620 <CPUSPCF+0x2c>
 80027ba:	46c0      	nop			; (mov r8, r8)
 80027bc:	08005449 	stmdaeq	r0, {r0, r3, r6, sl, ip, lr}
 80027c0:	02000004 	andeq	r0, r0, #4
 80027c4:	080110d8 	stmdaeq	r1, {r3, r4, r6, r7, ip}
 80027c8:	0000bfcf 	andeq	fp, r0, pc, asr #31
 80027cc:	080060d5 	stmdaeq	r0, {r0, r2, r4, r6, r7, sp, lr}
 80027d0:	08005539 	stmdaeq	r0, {r0, r3, r4, r5, r8, sl, ip, lr}
 80027d4:	08005579 	stmdaeq	r0, {r0, r3, r4, r5, r6, r8, sl, ip, lr}

080027d8 <CPUCF>:
 80027d8:	b570      	push	{r4, r5, r6, lr}
 80027da:	4dba      	ldr	r5, [pc, #744]	; (8002ac4 <CPUCF+0x2ec>)
 80027dc:	f002 f9bc 	bl	8004b58 <CPU+0x14c4>
 80027e0:	2320      	movs	r3, #32
 80027e2:	4cb9      	ldr	r4, [pc, #740]	; (8002ac8 <CPUCF+0x2f0>)
 80027e4:	54e0      	strb	r0, [r4, r3]
 80027e6:	28ff      	cmp	r0, #255	; 0xff
 80027e8:	d901      	bls.n	80027ee <CPUCF+0x16>
 80027ea:	f000 ff47 	bl	800367c <CPUCF+0xea4>
 80027ee:	4bb7      	ldr	r3, [pc, #732]	; (8002acc <CPUCF+0x2f4>)
 80027f0:	0080      	lsls	r0, r0, #2
 80027f2:	581b      	ldr	r3, [r3, r0]
 80027f4:	469f      	mov	pc, r3
 80027f6:	f7ff fefd 	bl	80025f4 <CPUSPCF>
 80027fa:	bc70      	pop	{r4, r5, r6}
 80027fc:	bc02      	pop	{r1}
 80027fe:	4708      	bx	r1
 8002800:	89e1      	ldrh	r1, [r4, #14]
 8002802:	8860      	ldrh	r0, [r4, #2]
 8002804:	4bb2      	ldr	r3, [pc, #712]	; (8002ad0 <CPUCF+0x2f8>)
 8002806:	f002 f9a5 	bl	8004b54 <CPU+0x14c0>
 800280a:	8060      	strh	r0, [r4, #2]
 800280c:	2010      	movs	r0, #16
 800280e:	e7f4      	b.n	80027fa <CPUCF+0x22>
 8002810:	8961      	ldrh	r1, [r4, #10]
 8002812:	8860      	ldrh	r0, [r4, #2]
 8002814:	4bae      	ldr	r3, [pc, #696]	; (8002ad0 <CPUCF+0x2f8>)
 8002816:	f002 f99d 	bl	8004b54 <CPU+0x14c0>
 800281a:	8060      	strh	r0, [r4, #2]
 800281c:	2010      	movs	r0, #16
 800281e:	e7ec      	b.n	80027fa <CPUCF+0x22>
 8002820:	88e1      	ldrh	r1, [r4, #6]
 8002822:	8860      	ldrh	r0, [r4, #2]
 8002824:	4baa      	ldr	r3, [pc, #680]	; (8002ad0 <CPUCF+0x2f8>)
 8002826:	f002 f995 	bl	8004b54 <CPU+0x14c0>
 800282a:	8060      	strh	r0, [r4, #2]
 800282c:	2010      	movs	r0, #16
 800282e:	e7e4      	b.n	80027fa <CPUCF+0x22>
 8002830:	8860      	ldrh	r0, [r4, #2]
 8002832:	4ba7      	ldr	r3, [pc, #668]	; (8002ad0 <CPUCF+0x2f8>)
 8002834:	0001      	movs	r1, r0
 8002836:	f002 f98d 	bl	8004b54 <CPU+0x14c0>
 800283a:	8060      	strh	r0, [r4, #2]
 800283c:	2010      	movs	r0, #16
 800283e:	e7dc      	b.n	80027fa <CPUCF+0x22>
 8002840:	89e1      	ldrh	r1, [r4, #14]
 8002842:	8860      	ldrh	r0, [r4, #2]
 8002844:	4ba3      	ldr	r3, [pc, #652]	; (8002ad4 <CPUCF+0x2fc>)
 8002846:	f002 f985 	bl	8004b54 <CPU+0x14c0>
 800284a:	8060      	strh	r0, [r4, #2]
 800284c:	2010      	movs	r0, #16
 800284e:	e7d4      	b.n	80027fa <CPUCF+0x22>
 8002850:	8961      	ldrh	r1, [r4, #10]
 8002852:	8860      	ldrh	r0, [r4, #2]
 8002854:	4b9f      	ldr	r3, [pc, #636]	; (8002ad4 <CPUCF+0x2fc>)
 8002856:	f002 f97d 	bl	8004b54 <CPU+0x14c0>
 800285a:	8060      	strh	r0, [r4, #2]
 800285c:	2010      	movs	r0, #16
 800285e:	e7cc      	b.n	80027fa <CPUCF+0x22>
 8002860:	88e1      	ldrh	r1, [r4, #6]
 8002862:	8860      	ldrh	r0, [r4, #2]
 8002864:	4b9b      	ldr	r3, [pc, #620]	; (8002ad4 <CPUCF+0x2fc>)
 8002866:	f002 f975 	bl	8004b54 <CPU+0x14c0>
 800286a:	8060      	strh	r0, [r4, #2]
 800286c:	2010      	movs	r0, #16
 800286e:	e7c4      	b.n	80027fa <CPUCF+0x22>
 8002870:	8860      	ldrh	r0, [r4, #2]
 8002872:	4b98      	ldr	r3, [pc, #608]	; (8002ad4 <CPUCF+0x2fc>)
 8002874:	0001      	movs	r1, r0
 8002876:	f002 f96d 	bl	8004b54 <CPU+0x14c0>
 800287a:	8060      	strh	r0, [r4, #2]
 800287c:	2010      	movs	r0, #16
 800287e:	e7bc      	b.n	80027fa <CPUCF+0x22>
 8002880:	89e1      	ldrh	r1, [r4, #14]
 8002882:	8860      	ldrh	r0, [r4, #2]
 8002884:	4b94      	ldr	r3, [pc, #592]	; (8002ad8 <CPUCF+0x300>)
 8002886:	f002 f965 	bl	8004b54 <CPU+0x14c0>
 800288a:	8060      	strh	r0, [r4, #2]
 800288c:	2010      	movs	r0, #16
 800288e:	e7b4      	b.n	80027fa <CPUCF+0x22>
 8002890:	8961      	ldrh	r1, [r4, #10]
 8002892:	8860      	ldrh	r0, [r4, #2]
 8002894:	4b90      	ldr	r3, [pc, #576]	; (8002ad8 <CPUCF+0x300>)
 8002896:	f002 f95d 	bl	8004b54 <CPU+0x14c0>
 800289a:	8060      	strh	r0, [r4, #2]
 800289c:	2010      	movs	r0, #16
 800289e:	e7ac      	b.n	80027fa <CPUCF+0x22>
 80028a0:	88e1      	ldrh	r1, [r4, #6]
 80028a2:	8860      	ldrh	r0, [r4, #2]
 80028a4:	4b8c      	ldr	r3, [pc, #560]	; (8002ad8 <CPUCF+0x300>)
 80028a6:	f002 f955 	bl	8004b54 <CPU+0x14c0>
 80028aa:	8060      	strh	r0, [r4, #2]
 80028ac:	2010      	movs	r0, #16
 80028ae:	e7a4      	b.n	80027fa <CPUCF+0x22>
 80028b0:	8860      	ldrh	r0, [r4, #2]
 80028b2:	4b89      	ldr	r3, [pc, #548]	; (8002ad8 <CPUCF+0x300>)
 80028b4:	0001      	movs	r1, r0
 80028b6:	f002 f94d 	bl	8004b54 <CPU+0x14c0>
 80028ba:	8060      	strh	r0, [r4, #2]
 80028bc:	2010      	movs	r0, #16
 80028be:	e79c      	b.n	80027fa <CPUCF+0x22>
 80028c0:	88e1      	ldrh	r1, [r4, #6]
 80028c2:	89e0      	ldrh	r0, [r4, #14]
 80028c4:	4b85      	ldr	r3, [pc, #532]	; (8002adc <CPUCF+0x304>)
 80028c6:	f002 f945 	bl	8004b54 <CPU+0x14c0>
 80028ca:	81e0      	strh	r0, [r4, #14]
 80028cc:	2010      	movs	r0, #16
 80028ce:	e794      	b.n	80027fa <CPUCF+0x22>
 80028d0:	8861      	ldrh	r1, [r4, #2]
 80028d2:	89e0      	ldrh	r0, [r4, #14]
 80028d4:	4b81      	ldr	r3, [pc, #516]	; (8002adc <CPUCF+0x304>)
 80028d6:	f002 f93d 	bl	8004b54 <CPU+0x14c0>
 80028da:	81e0      	strh	r0, [r4, #14]
 80028dc:	2010      	movs	r0, #16
 80028de:	e78c      	b.n	80027fa <CPUCF+0x22>
 80028e0:	88e1      	ldrh	r1, [r4, #6]
 80028e2:	8960      	ldrh	r0, [r4, #10]
 80028e4:	4b7d      	ldr	r3, [pc, #500]	; (8002adc <CPUCF+0x304>)
 80028e6:	f002 f935 	bl	8004b54 <CPU+0x14c0>
 80028ea:	8160      	strh	r0, [r4, #10]
 80028ec:	2010      	movs	r0, #16
 80028ee:	e784      	b.n	80027fa <CPUCF+0x22>
 80028f0:	8861      	ldrh	r1, [r4, #2]
 80028f2:	8960      	ldrh	r0, [r4, #10]
 80028f4:	4b79      	ldr	r3, [pc, #484]	; (8002adc <CPUCF+0x304>)
 80028f6:	f002 f92d 	bl	8004b54 <CPU+0x14c0>
 80028fa:	8160      	strh	r0, [r4, #10]
 80028fc:	2010      	movs	r0, #16
 80028fe:	e77c      	b.n	80027fa <CPUCF+0x22>
 8002900:	88e1      	ldrh	r1, [r4, #6]
 8002902:	8a60      	ldrh	r0, [r4, #18]
 8002904:	4b74      	ldr	r3, [pc, #464]	; (8002ad8 <CPUCF+0x300>)
 8002906:	f002 f925 	bl	8004b54 <CPU+0x14c0>
 800290a:	8260      	strh	r0, [r4, #18]
 800290c:	2010      	movs	r0, #16
 800290e:	e774      	b.n	80027fa <CPUCF+0x22>
 8002910:	8861      	ldrh	r1, [r4, #2]
 8002912:	8a60      	ldrh	r0, [r4, #18]
 8002914:	4b70      	ldr	r3, [pc, #448]	; (8002ad8 <CPUCF+0x300>)
 8002916:	f002 f91d 	bl	8004b54 <CPU+0x14c0>
 800291a:	8260      	strh	r0, [r4, #18]
 800291c:	2010      	movs	r0, #16
 800291e:	e76c      	b.n	80027fa <CPUCF+0x22>
 8002920:	88e1      	ldrh	r1, [r4, #6]
 8002922:	89e0      	ldrh	r0, [r4, #14]
 8002924:	4b6c      	ldr	r3, [pc, #432]	; (8002ad8 <CPUCF+0x300>)
 8002926:	f002 f915 	bl	8004b54 <CPU+0x14c0>
 800292a:	81e0      	strh	r0, [r4, #14]
 800292c:	2010      	movs	r0, #16
 800292e:	e764      	b.n	80027fa <CPUCF+0x22>
 8002930:	8861      	ldrh	r1, [r4, #2]
 8002932:	89e0      	ldrh	r0, [r4, #14]
 8002934:	4b68      	ldr	r3, [pc, #416]	; (8002ad8 <CPUCF+0x300>)
 8002936:	f002 f90d 	bl	8004b54 <CPU+0x14c0>
 800293a:	81e0      	strh	r0, [r4, #14]
 800293c:	2010      	movs	r0, #16
 800293e:	e75c      	b.n	80027fa <CPUCF+0x22>
 8002940:	88e1      	ldrh	r1, [r4, #6]
 8002942:	8960      	ldrh	r0, [r4, #10]
 8002944:	4b64      	ldr	r3, [pc, #400]	; (8002ad8 <CPUCF+0x300>)
 8002946:	f002 f905 	bl	8004b54 <CPU+0x14c0>
 800294a:	8160      	strh	r0, [r4, #10]
 800294c:	2010      	movs	r0, #16
 800294e:	e754      	b.n	80027fa <CPUCF+0x22>
 8002950:	8861      	ldrh	r1, [r4, #2]
 8002952:	8960      	ldrh	r0, [r4, #10]
 8002954:	4b60      	ldr	r3, [pc, #384]	; (8002ad8 <CPUCF+0x300>)
 8002956:	f002 f8fd 	bl	8004b54 <CPU+0x14c0>
 800295a:	8160      	strh	r0, [r4, #10]
 800295c:	2010      	movs	r0, #16
 800295e:	e74c      	b.n	80027fa <CPUCF+0x22>
 8002960:	89e1      	ldrh	r1, [r4, #14]
 8002962:	88e0      	ldrh	r0, [r4, #6]
 8002964:	4b5b      	ldr	r3, [pc, #364]	; (8002ad4 <CPUCF+0x2fc>)
 8002966:	f002 f8f5 	bl	8004b54 <CPU+0x14c0>
 800296a:	80e0      	strh	r0, [r4, #6]
 800296c:	2010      	movs	r0, #16
 800296e:	e744      	b.n	80027fa <CPUCF+0x22>
 8002970:	8961      	ldrh	r1, [r4, #10]
 8002972:	88e0      	ldrh	r0, [r4, #6]
 8002974:	4b57      	ldr	r3, [pc, #348]	; (8002ad4 <CPUCF+0x2fc>)
 8002976:	f002 f8ed 	bl	8004b54 <CPU+0x14c0>
 800297a:	80e0      	strh	r0, [r4, #6]
 800297c:	2010      	movs	r0, #16
 800297e:	e73c      	b.n	80027fa <CPUCF+0x22>
 8002980:	88e0      	ldrh	r0, [r4, #6]
 8002982:	4b54      	ldr	r3, [pc, #336]	; (8002ad4 <CPUCF+0x2fc>)
 8002984:	0001      	movs	r1, r0
 8002986:	f002 f8e5 	bl	8004b54 <CPU+0x14c0>
 800298a:	80e0      	strh	r0, [r4, #6]
 800298c:	2010      	movs	r0, #16
 800298e:	e734      	b.n	80027fa <CPUCF+0x22>
 8002990:	8861      	ldrh	r1, [r4, #2]
 8002992:	88e0      	ldrh	r0, [r4, #6]
 8002994:	4b4f      	ldr	r3, [pc, #316]	; (8002ad4 <CPUCF+0x2fc>)
 8002996:	f002 f8dd 	bl	8004b54 <CPU+0x14c0>
 800299a:	80e0      	strh	r0, [r4, #6]
 800299c:	2010      	movs	r0, #16
 800299e:	e72c      	b.n	80027fa <CPUCF+0x22>
 80029a0:	89e1      	ldrh	r1, [r4, #14]
 80029a2:	88e0      	ldrh	r0, [r4, #6]
 80029a4:	4b4c      	ldr	r3, [pc, #304]	; (8002ad8 <CPUCF+0x300>)
 80029a6:	f002 f8d5 	bl	8004b54 <CPU+0x14c0>
 80029aa:	80e0      	strh	r0, [r4, #6]
 80029ac:	2010      	movs	r0, #16
 80029ae:	e724      	b.n	80027fa <CPUCF+0x22>
 80029b0:	8961      	ldrh	r1, [r4, #10]
 80029b2:	88e0      	ldrh	r0, [r4, #6]
 80029b4:	4b48      	ldr	r3, [pc, #288]	; (8002ad8 <CPUCF+0x300>)
 80029b6:	f002 f8cd 	bl	8004b54 <CPU+0x14c0>
 80029ba:	80e0      	strh	r0, [r4, #6]
 80029bc:	2010      	movs	r0, #16
 80029be:	e71c      	b.n	80027fa <CPUCF+0x22>
 80029c0:	88e0      	ldrh	r0, [r4, #6]
 80029c2:	4b45      	ldr	r3, [pc, #276]	; (8002ad8 <CPUCF+0x300>)
 80029c4:	0001      	movs	r1, r0
 80029c6:	f002 f8c5 	bl	8004b54 <CPU+0x14c0>
 80029ca:	80e0      	strh	r0, [r4, #6]
 80029cc:	2010      	movs	r0, #16
 80029ce:	e714      	b.n	80027fa <CPUCF+0x22>
 80029d0:	8861      	ldrh	r1, [r4, #2]
 80029d2:	88e0      	ldrh	r0, [r4, #6]
 80029d4:	4b40      	ldr	r3, [pc, #256]	; (8002ad8 <CPUCF+0x300>)
 80029d6:	f002 f8bd 	bl	8004b54 <CPU+0x14c0>
 80029da:	80e0      	strh	r0, [r4, #6]
 80029dc:	2010      	movs	r0, #16
 80029de:	e70c      	b.n	80027fa <CPUCF+0x22>
 80029e0:	f002 f8ba 	bl	8004b58 <CPU+0x14c4>
 80029e4:	0600      	lsls	r0, r0, #24
 80029e6:	4b3e      	ldr	r3, [pc, #248]	; (8002ae0 <CPUCF+0x308>)
 80029e8:	1600      	asrs	r0, r0, #24
 80029ea:	8a65      	ldrh	r5, [r4, #18]
 80029ec:	f002 f8b2 	bl	8004b54 <CPU+0x14c0>
 80029f0:	182d      	adds	r5, r5, r0
 80029f2:	042d      	lsls	r5, r5, #16
 80029f4:	0c2d      	lsrs	r5, r5, #16
 80029f6:	0029      	movs	r1, r5
 80029f8:	4e3a      	ldr	r6, [pc, #232]	; (8002ae4 <CPUCF+0x30c>)
 80029fa:	2001      	movs	r0, #1
 80029fc:	f002 f8ad 	bl	8004b5a <CPU+0x14c6>
 8002a00:	1c69      	adds	r1, r5, #1
 8002a02:	0409      	lsls	r1, r1, #16
 8002a04:	70e0      	strb	r0, [r4, #3]
 8002a06:	0c09      	lsrs	r1, r1, #16
 8002a08:	2001      	movs	r0, #1
 8002a0a:	f002 f8a6 	bl	8004b5a <CPU+0x14c6>
 8002a0e:	70a0      	strb	r0, [r4, #2]
 8002a10:	2018      	movs	r0, #24
 8002a12:	e6f2      	b.n	80027fa <CPUCF+0x22>
 8002a14:	8963      	ldrh	r3, [r4, #10]
 8002a16:	2008      	movs	r0, #8
 8002a18:	80e3      	strh	r3, [r4, #6]
 8002a1a:	e6ee      	b.n	80027fa <CPUCF+0x22>
 8002a1c:	4b32      	ldr	r3, [pc, #200]	; (8002ae8 <CPUCF+0x310>)
 8002a1e:	f002 f899 	bl	8004b54 <CPU+0x14c0>
 8002a22:	0005      	movs	r5, r0
 8002a24:	7961      	ldrb	r1, [r4, #5]
 8002a26:	0409      	lsls	r1, r1, #16
 8002a28:	4301      	orrs	r1, r0
 8002a2a:	7ce2      	ldrb	r2, [r4, #19]
 8002a2c:	2001      	movs	r0, #1
 8002a2e:	4e2f      	ldr	r6, [pc, #188]	; (8002aec <CPUCF+0x314>)
 8002a30:	f002 f893 	bl	8004b5a <CPU+0x14c6>
 8002a34:	7963      	ldrb	r3, [r4, #5]
 8002a36:	1c69      	adds	r1, r5, #1
 8002a38:	0409      	lsls	r1, r1, #16
 8002a3a:	041b      	lsls	r3, r3, #16
 8002a3c:	0c09      	lsrs	r1, r1, #16
 8002a3e:	2001      	movs	r0, #1
 8002a40:	7ca2      	ldrb	r2, [r4, #18]
 8002a42:	4319      	orrs	r1, r3
 8002a44:	f002 f889 	bl	8004b5a <CPU+0x14c6>
 8002a48:	2018      	movs	r0, #24
 8002a4a:	e6d6      	b.n	80027fa <CPUCF+0x22>
 8002a4c:	2002      	movs	r0, #2
 8002a4e:	4928      	ldr	r1, [pc, #160]	; (8002af0 <CPUCF+0x318>)
 8002a50:	4b28      	ldr	r3, [pc, #160]	; (8002af4 <CPUCF+0x31c>)
 8002a52:	f002 f87f 	bl	8004b54 <CPU+0x14c0>
 8002a56:	2010      	movs	r0, #16
 8002a58:	e6cf      	b.n	80027fa <CPUCF+0x22>
 8002a5a:	7a61      	ldrb	r1, [r4, #9]
 8002a5c:	8965      	ldrh	r5, [r4, #10]
 8002a5e:	0409      	lsls	r1, r1, #16
 8002a60:	7be2      	ldrb	r2, [r4, #15]
 8002a62:	4329      	orrs	r1, r5
 8002a64:	2001      	movs	r0, #1
 8002a66:	4e21      	ldr	r6, [pc, #132]	; (8002aec <CPUCF+0x314>)
 8002a68:	f002 f877 	bl	8004b5a <CPU+0x14c6>
 8002a6c:	7a63      	ldrb	r3, [r4, #9]
 8002a6e:	1c69      	adds	r1, r5, #1
 8002a70:	0409      	lsls	r1, r1, #16
 8002a72:	041b      	lsls	r3, r3, #16
 8002a74:	0c09      	lsrs	r1, r1, #16
 8002a76:	2001      	movs	r0, #1
 8002a78:	7ba2      	ldrb	r2, [r4, #14]
 8002a7a:	4319      	orrs	r1, r3
 8002a7c:	f002 f86d 	bl	8004b5a <CPU+0x14c6>
 8002a80:	2014      	movs	r0, #20
 8002a82:	e6ba      	b.n	80027fa <CPUCF+0x22>
 8002a84:	89e1      	ldrh	r1, [r4, #14]
 8002a86:	8860      	ldrh	r0, [r4, #2]
 8002a88:	4b14      	ldr	r3, [pc, #80]	; (8002adc <CPUCF+0x304>)
 8002a8a:	f002 f863 	bl	8004b54 <CPU+0x14c0>
 8002a8e:	8060      	strh	r0, [r4, #2]
 8002a90:	2010      	movs	r0, #16
 8002a92:	e6b2      	b.n	80027fa <CPUCF+0x22>
 8002a94:	8961      	ldrh	r1, [r4, #10]
 8002a96:	8860      	ldrh	r0, [r4, #2]
 8002a98:	4b10      	ldr	r3, [pc, #64]	; (8002adc <CPUCF+0x304>)
 8002a9a:	f002 f85b 	bl	8004b54 <CPU+0x14c0>
 8002a9e:	8060      	strh	r0, [r4, #2]
 8002aa0:	2010      	movs	r0, #16
 8002aa2:	e6aa      	b.n	80027fa <CPUCF+0x22>
 8002aa4:	88e1      	ldrh	r1, [r4, #6]
 8002aa6:	8860      	ldrh	r0, [r4, #2]
 8002aa8:	4b0c      	ldr	r3, [pc, #48]	; (8002adc <CPUCF+0x304>)
 8002aaa:	f002 f853 	bl	8004b54 <CPU+0x14c0>
 8002aae:	8060      	strh	r0, [r4, #2]
 8002ab0:	2010      	movs	r0, #16
 8002ab2:	e6a2      	b.n	80027fa <CPUCF+0x22>
 8002ab4:	8860      	ldrh	r0, [r4, #2]
 8002ab6:	4b09      	ldr	r3, [pc, #36]	; (8002adc <CPUCF+0x304>)
 8002ab8:	0001      	movs	r1, r0
 8002aba:	f002 f84b 	bl	8004b54 <CPU+0x14c0>
 8002abe:	8060      	strh	r0, [r4, #2]
 8002ac0:	2010      	movs	r0, #16
 8002ac2:	e69a      	b.n	80027fa <CPUCF+0x22>
 8002ac4:	08005449 	stmdaeq	r0, {r0, r3, r6, sl, ip, lr}
 8002ac8:	02000004 	andeq	r0, r0, #4
 8002acc:	080114d8 	stmdaeq	r1, {r3, r4, r6, r7, sl, ip}
 8002ad0:	08005999 	stmdaeq	r0, {r0, r3, r4, r7, r8, fp, ip, lr}
 8002ad4:	08005709 	stmdaeq	r0, {r0, r3, r8, r9, sl, ip, lr}
 8002ad8:	080056b1 	stmdaeq	r0, {r0, r4, r5, r7, r9, sl, ip, lr}
 8002adc:	08005599 	stmdaeq	r0, {r0, r3, r4, r7, r8, sl, ip, lr}
 8002ae0:	08005511 	stmdaeq	r0, {r0, r4, r8, sl, ip, lr}
 8002ae4:	08004b5d 	stmdaeq	r0, {r0, r2, r3, r4, r6, r8, r9, fp, lr}
 8002ae8:	08005481 	stmdaeq	r0, {r0, r7, sl, ip, lr}
 8002aec:	08004be9 	stmdaeq	r0, {r0, r3, r5, r6, r7, r8, r9, fp, lr}
 8002af0:	00006fcf 	andeq	r6, r0, pc, asr #31
 8002af4:	080060d5 	stmdaeq	r0, {r0, r2, r4, r6, r7, sp, lr}
 8002af8:	7a61      	ldrb	r1, [r4, #9]
 8002afa:	8965      	ldrh	r5, [r4, #10]
 8002afc:	0409      	lsls	r1, r1, #16
 8002afe:	7ae2      	ldrb	r2, [r4, #11]
 8002b00:	4329      	orrs	r1, r5
 8002b02:	2001      	movs	r0, #1
 8002b04:	4edc      	ldr	r6, [pc, #880]	; (8002e78 <CPUCF+0x6a0>)
 8002b06:	f002 f828 	bl	8004b5a <CPU+0x14c6>
 8002b0a:	7a63      	ldrb	r3, [r4, #9]
 8002b0c:	1c69      	adds	r1, r5, #1
 8002b0e:	0409      	lsls	r1, r1, #16
 8002b10:	041b      	lsls	r3, r3, #16
 8002b12:	0c09      	lsrs	r1, r1, #16
 8002b14:	2001      	movs	r0, #1
 8002b16:	7aa2      	ldrb	r2, [r4, #10]
 8002b18:	4319      	orrs	r1, r3
 8002b1a:	f002 f81e 	bl	8004b5a <CPU+0x14c6>
 8002b1e:	2014      	movs	r0, #20
 8002b20:	e66b      	b.n	80027fa <CPUCF+0x22>
 8002b22:	2001      	movs	r0, #1
 8002b24:	49d5      	ldr	r1, [pc, #852]	; (8002e7c <CPUCF+0x6a4>)
 8002b26:	4bd6      	ldr	r3, [pc, #856]	; (8002e80 <CPUCF+0x6a8>)
 8002b28:	f002 f814 	bl	8004b54 <CPU+0x14c0>
 8002b2c:	2010      	movs	r0, #16
 8002b2e:	e664      	b.n	80027fa <CPUCF+0x22>
 8002b30:	88e1      	ldrh	r1, [r4, #6]
 8002b32:	8a60      	ldrh	r0, [r4, #18]
 8002b34:	4bd3      	ldr	r3, [pc, #844]	; (8002e84 <CPUCF+0x6ac>)
 8002b36:	f002 f80d 	bl	8004b54 <CPU+0x14c0>
 8002b3a:	8260      	strh	r0, [r4, #18]
 8002b3c:	2010      	movs	r0, #16
 8002b3e:	e65c      	b.n	80027fa <CPUCF+0x22>
 8002b40:	2001      	movs	r0, #1
 8002b42:	49d1      	ldr	r1, [pc, #836]	; (8002e88 <CPUCF+0x6b0>)
 8002b44:	4bce      	ldr	r3, [pc, #824]	; (8002e80 <CPUCF+0x6a8>)
 8002b46:	f002 f805 	bl	8004b54 <CPU+0x14c0>
 8002b4a:	2010      	movs	r0, #16
 8002b4c:	e655      	b.n	80027fa <CPUCF+0x22>
 8002b4e:	88e1      	ldrh	r1, [r4, #6]
 8002b50:	8a60      	ldrh	r0, [r4, #18]
 8002b52:	4bcc      	ldr	r3, [pc, #816]	; (8002e84 <CPUCF+0x6ac>)
 8002b54:	f001 fffe 	bl	8004b54 <CPU+0x14c0>
 8002b58:	2010      	movs	r0, #16
 8002b5a:	e64e      	b.n	80027fa <CPUCF+0x22>
 8002b5c:	8861      	ldrh	r1, [r4, #2]
 8002b5e:	8a60      	ldrh	r0, [r4, #18]
 8002b60:	4bc8      	ldr	r3, [pc, #800]	; (8002e84 <CPUCF+0x6ac>)
 8002b62:	f001 fff7 	bl	8004b54 <CPU+0x14c0>
 8002b66:	2010      	movs	r0, #16
 8002b68:	e647      	b.n	80027fa <CPUCF+0x22>
 8002b6a:	8a63      	ldrh	r3, [r4, #18]
 8002b6c:	2008      	movs	r0, #8
 8002b6e:	8063      	strh	r3, [r4, #2]
 8002b70:	e643      	b.n	80027fa <CPUCF+0x22>
 8002b72:	7d63      	ldrb	r3, [r4, #21]
 8002b74:	200c      	movs	r0, #12
 8002b76:	73a3      	strb	r3, [r4, #14]
 8002b78:	e63f      	b.n	80027fa <CPUCF+0x22>
 8002b7a:	7d63      	ldrb	r3, [r4, #21]
 8002b7c:	200c      	movs	r0, #12
 8002b7e:	72a3      	strb	r3, [r4, #10]
 8002b80:	e63b      	b.n	80027fa <CPUCF+0x22>
 8002b82:	8ae3      	ldrh	r3, [r4, #22]
 8002b84:	2008      	movs	r0, #8
 8002b86:	80e3      	strh	r3, [r4, #6]
 8002b88:	e637      	b.n	80027fa <CPUCF+0x22>
 8002b8a:	2001      	movs	r0, #1
 8002b8c:	49bf      	ldr	r1, [pc, #764]	; (8002e8c <CPUCF+0x6b4>)
 8002b8e:	4bbc      	ldr	r3, [pc, #752]	; (8002e80 <CPUCF+0x6a8>)
 8002b90:	f001 ffe0 	bl	8004b54 <CPU+0x14c0>
 8002b94:	2010      	movs	r0, #16
 8002b96:	e630      	b.n	80027fa <CPUCF+0x22>
 8002b98:	2001      	movs	r0, #1
 8002b9a:	49bd      	ldr	r1, [pc, #756]	; (8002e90 <CPUCF+0x6b8>)
 8002b9c:	4bb8      	ldr	r3, [pc, #736]	; (8002e80 <CPUCF+0x6a8>)
 8002b9e:	f001 ffd9 	bl	8004b54 <CPU+0x14c0>
 8002ba2:	2010      	movs	r0, #16
 8002ba4:	e629      	b.n	80027fa <CPUCF+0x22>
 8002ba6:	8a63      	ldrh	r3, [r4, #18]
 8002ba8:	2008      	movs	r0, #8
 8002baa:	80e3      	strh	r3, [r4, #6]
 8002bac:	e625      	b.n	80027fa <CPUCF+0x22>
 8002bae:	89e3      	ldrh	r3, [r4, #14]
 8002bb0:	2008      	movs	r0, #8
 8002bb2:	8263      	strh	r3, [r4, #18]
 8002bb4:	e621      	b.n	80027fa <CPUCF+0x22>
 8002bb6:	8963      	ldrh	r3, [r4, #10]
 8002bb8:	2008      	movs	r0, #8
 8002bba:	8263      	strh	r3, [r4, #18]
 8002bbc:	e61d      	b.n	80027fa <CPUCF+0x22>
 8002bbe:	88e3      	ldrh	r3, [r4, #6]
 8002bc0:	2008      	movs	r0, #8
 8002bc2:	8263      	strh	r3, [r4, #18]
 8002bc4:	e619      	b.n	80027fa <CPUCF+0x22>
 8002bc6:	8863      	ldrh	r3, [r4, #2]
 8002bc8:	2008      	movs	r0, #8
 8002bca:	8263      	strh	r3, [r4, #18]
 8002bcc:	e615      	b.n	80027fa <CPUCF+0x22>
 8002bce:	7fe3      	ldrb	r3, [r4, #31]
 8002bd0:	200c      	movs	r0, #12
 8002bd2:	70e3      	strb	r3, [r4, #3]
 8002bd4:	e611      	b.n	80027fa <CPUCF+0x22>
 8002bd6:	89e1      	ldrh	r1, [r4, #14]
 8002bd8:	88e0      	ldrh	r0, [r4, #6]
 8002bda:	4bae      	ldr	r3, [pc, #696]	; (8002e94 <CPUCF+0x6bc>)
 8002bdc:	f001 ffba 	bl	8004b54 <CPU+0x14c0>
 8002be0:	80e0      	strh	r0, [r4, #6]
 8002be2:	2010      	movs	r0, #16
 8002be4:	e609      	b.n	80027fa <CPUCF+0x22>
 8002be6:	f001 ffb7 	bl	8004b58 <CPU+0x14c4>
 8002bea:	0600      	lsls	r0, r0, #24
 8002bec:	4baa      	ldr	r3, [pc, #680]	; (8002e98 <CPUCF+0x6c0>)
 8002bee:	1600      	asrs	r0, r0, #24
 8002bf0:	8a65      	ldrh	r5, [r4, #18]
 8002bf2:	f001 ffaf 	bl	8004b54 <CPU+0x14c0>
 8002bf6:	182d      	adds	r5, r5, r0
 8002bf8:	042d      	lsls	r5, r5, #16
 8002bfa:	0c2d      	lsrs	r5, r5, #16
 8002bfc:	7ae2      	ldrb	r2, [r4, #11]
 8002bfe:	0029      	movs	r1, r5
 8002c00:	2001      	movs	r0, #1
 8002c02:	4e9d      	ldr	r6, [pc, #628]	; (8002e78 <CPUCF+0x6a0>)
 8002c04:	f001 ffa9 	bl	8004b5a <CPU+0x14c6>
 8002c08:	1c69      	adds	r1, r5, #1
 8002c0a:	0409      	lsls	r1, r1, #16
 8002c0c:	2001      	movs	r0, #1
 8002c0e:	7aa2      	ldrb	r2, [r4, #10]
 8002c10:	0c09      	lsrs	r1, r1, #16
 8002c12:	f001 ffa2 	bl	8004b5a <CPU+0x14c6>
 8002c16:	2018      	movs	r0, #24
 8002c18:	e5ef      	b.n	80027fa <CPUCF+0x22>
 8002c1a:	f001 ff9d 	bl	8004b58 <CPU+0x14c4>
 8002c1e:	0600      	lsls	r0, r0, #24
 8002c20:	4b9d      	ldr	r3, [pc, #628]	; (8002e98 <CPUCF+0x6c0>)
 8002c22:	1600      	asrs	r0, r0, #24
 8002c24:	8a65      	ldrh	r5, [r4, #18]
 8002c26:	f001 ff95 	bl	8004b54 <CPU+0x14c0>
 8002c2a:	182d      	adds	r5, r5, r0
 8002c2c:	042d      	lsls	r5, r5, #16
 8002c2e:	0c2d      	lsrs	r5, r5, #16
 8002c30:	79e2      	ldrb	r2, [r4, #7]
 8002c32:	0029      	movs	r1, r5
 8002c34:	2001      	movs	r0, #1
 8002c36:	4e90      	ldr	r6, [pc, #576]	; (8002e78 <CPUCF+0x6a0>)
 8002c38:	f001 ff8f 	bl	8004b5a <CPU+0x14c6>
 8002c3c:	1c69      	adds	r1, r5, #1
 8002c3e:	0409      	lsls	r1, r1, #16
 8002c40:	2001      	movs	r0, #1
 8002c42:	79a2      	ldrb	r2, [r4, #6]
 8002c44:	0c09      	lsrs	r1, r1, #16
 8002c46:	f001 ff88 	bl	8004b5a <CPU+0x14c6>
 8002c4a:	2018      	movs	r0, #24
 8002c4c:	e5d5      	b.n	80027fa <CPUCF+0x22>
 8002c4e:	f001 ff83 	bl	8004b58 <CPU+0x14c4>
 8002c52:	0600      	lsls	r0, r0, #24
 8002c54:	4b90      	ldr	r3, [pc, #576]	; (8002e98 <CPUCF+0x6c0>)
 8002c56:	1600      	asrs	r0, r0, #24
 8002c58:	8a65      	ldrh	r5, [r4, #18]
 8002c5a:	f001 ff7b 	bl	8004b54 <CPU+0x14c0>
 8002c5e:	182d      	adds	r5, r5, r0
 8002c60:	042d      	lsls	r5, r5, #16
 8002c62:	0c2d      	lsrs	r5, r5, #16
 8002c64:	78e2      	ldrb	r2, [r4, #3]
 8002c66:	0029      	movs	r1, r5
 8002c68:	2001      	movs	r0, #1
 8002c6a:	4e83      	ldr	r6, [pc, #524]	; (8002e78 <CPUCF+0x6a0>)
 8002c6c:	f001 ff75 	bl	8004b5a <CPU+0x14c6>
 8002c70:	1c69      	adds	r1, r5, #1
 8002c72:	0409      	lsls	r1, r1, #16
 8002c74:	2001      	movs	r0, #1
 8002c76:	78a2      	ldrb	r2, [r4, #2]
 8002c78:	0c09      	lsrs	r1, r1, #16
 8002c7a:	f001 ff6e 	bl	8004b5a <CPU+0x14c6>
 8002c7e:	2018      	movs	r0, #24
 8002c80:	e5bb      	b.n	80027fa <CPUCF+0x22>
 8002c82:	f001 ff69 	bl	8004b58 <CPU+0x14c4>
 8002c86:	0600      	lsls	r0, r0, #24
 8002c88:	4b83      	ldr	r3, [pc, #524]	; (8002e98 <CPUCF+0x6c0>)
 8002c8a:	1600      	asrs	r0, r0, #24
 8002c8c:	8a65      	ldrh	r5, [r4, #18]
 8002c8e:	f001 ff61 	bl	8004b54 <CPU+0x14c0>
 8002c92:	182d      	adds	r5, r5, r0
 8002c94:	042d      	lsls	r5, r5, #16
 8002c96:	0c2d      	lsrs	r5, r5, #16
 8002c98:	0029      	movs	r1, r5
 8002c9a:	4e80      	ldr	r6, [pc, #512]	; (8002e9c <CPUCF+0x6c4>)
 8002c9c:	2001      	movs	r0, #1
 8002c9e:	f001 ff5c 	bl	8004b5a <CPU+0x14c6>
 8002ca2:	1c69      	adds	r1, r5, #1
 8002ca4:	0409      	lsls	r1, r1, #16
 8002ca6:	73e0      	strb	r0, [r4, #15]
 8002ca8:	0c09      	lsrs	r1, r1, #16
 8002caa:	2001      	movs	r0, #1
 8002cac:	f001 ff55 	bl	8004b5a <CPU+0x14c6>
 8002cb0:	73a0      	strb	r0, [r4, #14]
 8002cb2:	2018      	movs	r0, #24
 8002cb4:	e5a1      	b.n	80027fa <CPUCF+0x22>
 8002cb6:	f001 ff4f 	bl	8004b58 <CPU+0x14c4>
 8002cba:	0600      	lsls	r0, r0, #24
 8002cbc:	4b76      	ldr	r3, [pc, #472]	; (8002e98 <CPUCF+0x6c0>)
 8002cbe:	1600      	asrs	r0, r0, #24
 8002cc0:	8a65      	ldrh	r5, [r4, #18]
 8002cc2:	f001 ff47 	bl	8004b54 <CPU+0x14c0>
 8002cc6:	182d      	adds	r5, r5, r0
 8002cc8:	042d      	lsls	r5, r5, #16
 8002cca:	0c2d      	lsrs	r5, r5, #16
 8002ccc:	0029      	movs	r1, r5
 8002cce:	4e73      	ldr	r6, [pc, #460]	; (8002e9c <CPUCF+0x6c4>)
 8002cd0:	2001      	movs	r0, #1
 8002cd2:	f001 ff42 	bl	8004b5a <CPU+0x14c6>
 8002cd6:	1c69      	adds	r1, r5, #1
 8002cd8:	0409      	lsls	r1, r1, #16
 8002cda:	72e0      	strb	r0, [r4, #11]
 8002cdc:	0c09      	lsrs	r1, r1, #16
 8002cde:	2001      	movs	r0, #1
 8002ce0:	f001 ff3b 	bl	8004b5a <CPU+0x14c6>
 8002ce4:	72a0      	strb	r0, [r4, #10]
 8002ce6:	2018      	movs	r0, #24
 8002ce8:	e587      	b.n	80027fa <CPUCF+0x22>
 8002cea:	f001 ff35 	bl	8004b58 <CPU+0x14c4>
 8002cee:	0600      	lsls	r0, r0, #24
 8002cf0:	4b69      	ldr	r3, [pc, #420]	; (8002e98 <CPUCF+0x6c0>)
 8002cf2:	1600      	asrs	r0, r0, #24
 8002cf4:	8a65      	ldrh	r5, [r4, #18]
 8002cf6:	f001 ff2d 	bl	8004b54 <CPU+0x14c0>
 8002cfa:	182d      	adds	r5, r5, r0
 8002cfc:	042d      	lsls	r5, r5, #16
 8002cfe:	0c2d      	lsrs	r5, r5, #16
 8002d00:	0029      	movs	r1, r5
 8002d02:	4e66      	ldr	r6, [pc, #408]	; (8002e9c <CPUCF+0x6c4>)
 8002d04:	2001      	movs	r0, #1
 8002d06:	f001 ff28 	bl	8004b5a <CPU+0x14c6>
 8002d0a:	1c69      	adds	r1, r5, #1
 8002d0c:	0409      	lsls	r1, r1, #16
 8002d0e:	71e0      	strb	r0, [r4, #7]
 8002d10:	0c09      	lsrs	r1, r1, #16
 8002d12:	2001      	movs	r0, #1
 8002d14:	f001 ff21 	bl	8004b5a <CPU+0x14c6>
 8002d18:	71a0      	strb	r0, [r4, #6]
 8002d1a:	2018      	movs	r0, #24
 8002d1c:	e56d      	b.n	80027fa <CPUCF+0x22>
 8002d1e:	7d63      	ldrb	r3, [r4, #21]
 8002d20:	200c      	movs	r0, #12
 8002d22:	70a3      	strb	r3, [r4, #2]
 8002d24:	e569      	b.n	80027fa <CPUCF+0x22>
 8002d26:	7961      	ldrb	r1, [r4, #5]
 8002d28:	88e5      	ldrh	r5, [r4, #6]
 8002d2a:	0409      	lsls	r1, r1, #16
 8002d2c:	7be2      	ldrb	r2, [r4, #15]
 8002d2e:	4329      	orrs	r1, r5
 8002d30:	2001      	movs	r0, #1
 8002d32:	4e51      	ldr	r6, [pc, #324]	; (8002e78 <CPUCF+0x6a0>)
 8002d34:	f001 ff11 	bl	8004b5a <CPU+0x14c6>
 8002d38:	7963      	ldrb	r3, [r4, #5]
 8002d3a:	1c69      	adds	r1, r5, #1
 8002d3c:	0409      	lsls	r1, r1, #16
 8002d3e:	041b      	lsls	r3, r3, #16
 8002d40:	0c09      	lsrs	r1, r1, #16
 8002d42:	2001      	movs	r0, #1
 8002d44:	7ba2      	ldrb	r2, [r4, #14]
 8002d46:	4319      	orrs	r1, r3
 8002d48:	f001 ff07 	bl	8004b5a <CPU+0x14c6>
 8002d4c:	2014      	movs	r0, #20
 8002d4e:	e554      	b.n	80027fa <CPUCF+0x22>
 8002d50:	7961      	ldrb	r1, [r4, #5]
 8002d52:	88e5      	ldrh	r5, [r4, #6]
 8002d54:	0409      	lsls	r1, r1, #16
 8002d56:	7ae2      	ldrb	r2, [r4, #11]
 8002d58:	4329      	orrs	r1, r5
 8002d5a:	2001      	movs	r0, #1
 8002d5c:	4e46      	ldr	r6, [pc, #280]	; (8002e78 <CPUCF+0x6a0>)
 8002d5e:	f001 fefc 	bl	8004b5a <CPU+0x14c6>
 8002d62:	7963      	ldrb	r3, [r4, #5]
 8002d64:	1c69      	adds	r1, r5, #1
 8002d66:	0409      	lsls	r1, r1, #16
 8002d68:	041b      	lsls	r3, r3, #16
 8002d6a:	0c09      	lsrs	r1, r1, #16
 8002d6c:	2001      	movs	r0, #1
 8002d6e:	7aa2      	ldrb	r2, [r4, #10]
 8002d70:	4319      	orrs	r1, r3
 8002d72:	f001 fef2 	bl	8004b5a <CPU+0x14c6>
 8002d76:	2014      	movs	r0, #20
 8002d78:	e53f      	b.n	80027fa <CPUCF+0x22>
 8002d7a:	7961      	ldrb	r1, [r4, #5]
 8002d7c:	88e5      	ldrh	r5, [r4, #6]
 8002d7e:	0409      	lsls	r1, r1, #16
 8002d80:	79e2      	ldrb	r2, [r4, #7]
 8002d82:	4329      	orrs	r1, r5
 8002d84:	2001      	movs	r0, #1
 8002d86:	4e3c      	ldr	r6, [pc, #240]	; (8002e78 <CPUCF+0x6a0>)
 8002d88:	f001 fee7 	bl	8004b5a <CPU+0x14c6>
 8002d8c:	7963      	ldrb	r3, [r4, #5]
 8002d8e:	1c69      	adds	r1, r5, #1
 8002d90:	0409      	lsls	r1, r1, #16
 8002d92:	041b      	lsls	r3, r3, #16
 8002d94:	0c09      	lsrs	r1, r1, #16
 8002d96:	2001      	movs	r0, #1
 8002d98:	79a2      	ldrb	r2, [r4, #6]
 8002d9a:	4319      	orrs	r1, r3
 8002d9c:	f001 fedd 	bl	8004b5a <CPU+0x14c6>
 8002da0:	2014      	movs	r0, #20
 8002da2:	e52a      	b.n	80027fa <CPUCF+0x22>
 8002da4:	7961      	ldrb	r1, [r4, #5]
 8002da6:	88e5      	ldrh	r5, [r4, #6]
 8002da8:	0409      	lsls	r1, r1, #16
 8002daa:	78e2      	ldrb	r2, [r4, #3]
 8002dac:	4329      	orrs	r1, r5
 8002dae:	2001      	movs	r0, #1
 8002db0:	4e31      	ldr	r6, [pc, #196]	; (8002e78 <CPUCF+0x6a0>)
 8002db2:	f001 fed2 	bl	8004b5a <CPU+0x14c6>
 8002db6:	7963      	ldrb	r3, [r4, #5]
 8002db8:	1c69      	adds	r1, r5, #1
 8002dba:	0409      	lsls	r1, r1, #16
 8002dbc:	041b      	lsls	r3, r3, #16
 8002dbe:	0c09      	lsrs	r1, r1, #16
 8002dc0:	2001      	movs	r0, #1
 8002dc2:	78a2      	ldrb	r2, [r4, #2]
 8002dc4:	4319      	orrs	r1, r3
 8002dc6:	f001 fec8 	bl	8004b5a <CPU+0x14c6>
 8002dca:	2014      	movs	r0, #20
 8002dcc:	e515      	b.n	80027fa <CPUCF+0x22>
 8002dce:	7961      	ldrb	r1, [r4, #5]
 8002dd0:	88e5      	ldrh	r5, [r4, #6]
 8002dd2:	0409      	lsls	r1, r1, #16
 8002dd4:	4329      	orrs	r1, r5
 8002dd6:	4e31      	ldr	r6, [pc, #196]	; (8002e9c <CPUCF+0x6c4>)
 8002dd8:	2001      	movs	r0, #1
 8002dda:	f001 febe 	bl	8004b5a <CPU+0x14c6>
 8002dde:	7963      	ldrb	r3, [r4, #5]
 8002de0:	1c69      	adds	r1, r5, #1
 8002de2:	0409      	lsls	r1, r1, #16
 8002de4:	041b      	lsls	r3, r3, #16
 8002de6:	0c09      	lsrs	r1, r1, #16
 8002de8:	73e0      	strb	r0, [r4, #15]
 8002dea:	4319      	orrs	r1, r3
 8002dec:	2001      	movs	r0, #1
 8002dee:	f001 feb4 	bl	8004b5a <CPU+0x14c6>
 8002df2:	73a0      	strb	r0, [r4, #14]
 8002df4:	2014      	movs	r0, #20
 8002df6:	e500      	b.n	80027fa <CPUCF+0x22>
 8002df8:	7961      	ldrb	r1, [r4, #5]
 8002dfa:	88e5      	ldrh	r5, [r4, #6]
 8002dfc:	0409      	lsls	r1, r1, #16
 8002dfe:	4329      	orrs	r1, r5
 8002e00:	4e26      	ldr	r6, [pc, #152]	; (8002e9c <CPUCF+0x6c4>)
 8002e02:	2001      	movs	r0, #1
 8002e04:	f001 fea9 	bl	8004b5a <CPU+0x14c6>
 8002e08:	7963      	ldrb	r3, [r4, #5]
 8002e0a:	1c69      	adds	r1, r5, #1
 8002e0c:	0409      	lsls	r1, r1, #16
 8002e0e:	041b      	lsls	r3, r3, #16
 8002e10:	0c09      	lsrs	r1, r1, #16
 8002e12:	72e0      	strb	r0, [r4, #11]
 8002e14:	4319      	orrs	r1, r3
 8002e16:	2001      	movs	r0, #1
 8002e18:	f001 fe9f 	bl	8004b5a <CPU+0x14c6>
 8002e1c:	72a0      	strb	r0, [r4, #10]
 8002e1e:	2014      	movs	r0, #20
 8002e20:	e4eb      	b.n	80027fa <CPUCF+0x22>
 8002e22:	7961      	ldrb	r1, [r4, #5]
 8002e24:	88e5      	ldrh	r5, [r4, #6]
 8002e26:	0409      	lsls	r1, r1, #16
 8002e28:	4329      	orrs	r1, r5
 8002e2a:	4e1c      	ldr	r6, [pc, #112]	; (8002e9c <CPUCF+0x6c4>)
 8002e2c:	2001      	movs	r0, #1
 8002e2e:	f001 fe94 	bl	8004b5a <CPU+0x14c6>
 8002e32:	7963      	ldrb	r3, [r4, #5]
 8002e34:	1c69      	adds	r1, r5, #1
 8002e36:	0409      	lsls	r1, r1, #16
 8002e38:	041b      	lsls	r3, r3, #16
 8002e3a:	0c09      	lsrs	r1, r1, #16
 8002e3c:	71e0      	strb	r0, [r4, #7]
 8002e3e:	4319      	orrs	r1, r3
 8002e40:	2001      	movs	r0, #1
 8002e42:	f001 fe8a 	bl	8004b5a <CPU+0x14c6>
 8002e46:	71a0      	strb	r0, [r4, #6]
 8002e48:	2014      	movs	r0, #20
 8002e4a:	e4d6      	b.n	80027fa <CPUCF+0x22>
 8002e4c:	7961      	ldrb	r1, [r4, #5]
 8002e4e:	88e5      	ldrh	r5, [r4, #6]
 8002e50:	0409      	lsls	r1, r1, #16
 8002e52:	4329      	orrs	r1, r5
 8002e54:	4e11      	ldr	r6, [pc, #68]	; (8002e9c <CPUCF+0x6c4>)
 8002e56:	2001      	movs	r0, #1
 8002e58:	f001 fe7f 	bl	8004b5a <CPU+0x14c6>
 8002e5c:	7963      	ldrb	r3, [r4, #5]
 8002e5e:	1c69      	adds	r1, r5, #1
 8002e60:	0409      	lsls	r1, r1, #16
 8002e62:	041b      	lsls	r3, r3, #16
 8002e64:	0c09      	lsrs	r1, r1, #16
 8002e66:	70e0      	strb	r0, [r4, #3]
 8002e68:	4319      	orrs	r1, r3
 8002e6a:	2001      	movs	r0, #1
 8002e6c:	f001 fe75 	bl	8004b5a <CPU+0x14c6>
 8002e70:	70a0      	strb	r0, [r4, #2]
 8002e72:	2014      	movs	r0, #20
 8002e74:	e4c1      	b.n	80027fa <CPUCF+0x22>
 8002e76:	46c0      	nop			; (mov r8, r8)
 8002e78:	08004be9 	stmdaeq	r0, {r0, r3, r5, r6, r7, r8, r9, fp, lr}
 8002e7c:	00004ecf 	andeq	r4, r0, pc, asr #29
 8002e80:	080060d5 	stmdaeq	r0, {r0, r2, r4, r6, r7, sp, lr}
 8002e84:	08005599 	stmdaeq	r0, {r0, r3, r4, r7, r8, sl, ip, lr}
 8002e88:	00005ecf 	andeq	r5, r0, pc, asr #29
 8002e8c:	000057cf 	andeq	r5, r0, pc, asr #15
 8002e90:	000056cf 	andeq	r5, r0, pc, asr #13
 8002e94:	08005999 	stmdaeq	r0, {r0, r3, r4, r7, r8, fp, ip, lr}
 8002e98:	08005511 	stmdaeq	r0, {r0, r4, r8, sl, ip, lr}
 8002e9c:	08004b5d 	stmdaeq	r0, {r0, r2, r3, r4, r6, r8, r9, fp, lr}
 8002ea0:	8ae3      	ldrh	r3, [r4, #22]
 8002ea2:	2008      	movs	r0, #8
 8002ea4:	8063      	strh	r3, [r4, #2]
 8002ea6:	e4a8      	b.n	80027fa <CPUCF+0x22>
 8002ea8:	4dec      	ldr	r5, [pc, #944]	; (800325c <CPUCF+0xa84>)
 8002eaa:	f001 fe55 	bl	8004b58 <CPU+0x14c4>
 8002eae:	7360      	strb	r0, [r4, #13]
 8002eb0:	f001 fe52 	bl	8004b58 <CPU+0x14c4>
 8002eb4:	7260      	strb	r0, [r4, #9]
 8002eb6:	f001 fe4f 	bl	8004b58 <CPU+0x14c4>
 8002eba:	7160      	strb	r0, [r4, #5]
 8002ebc:	7660      	strb	r0, [r4, #25]
 8002ebe:	f001 fe4b 	bl	8004b58 <CPU+0x14c4>
 8002ec2:	76a0      	strb	r0, [r4, #26]
 8002ec4:	f001 fe48 	bl	8004b58 <CPU+0x14c4>
 8002ec8:	73e0      	strb	r0, [r4, #15]
 8002eca:	f001 fe45 	bl	8004b58 <CPU+0x14c4>
 8002ece:	73a0      	strb	r0, [r4, #14]
 8002ed0:	f001 fe42 	bl	8004b58 <CPU+0x14c4>
 8002ed4:	72e0      	strb	r0, [r4, #11]
 8002ed6:	f001 fe3f 	bl	8004b58 <CPU+0x14c4>
 8002eda:	72a0      	strb	r0, [r4, #10]
 8002edc:	f001 fe3c 	bl	8004b58 <CPU+0x14c4>
 8002ee0:	71e0      	strb	r0, [r4, #7]
 8002ee2:	f001 fe39 	bl	8004b58 <CPU+0x14c4>
 8002ee6:	71a0      	strb	r0, [r4, #6]
 8002ee8:	f001 fe36 	bl	8004b58 <CPU+0x14c4>
 8002eec:	70e0      	strb	r0, [r4, #3]
 8002eee:	f001 fe33 	bl	8004b58 <CPU+0x14c4>
 8002ef2:	70a0      	strb	r0, [r4, #2]
 8002ef4:	2038      	movs	r0, #56	; 0x38
 8002ef6:	e480      	b.n	80027fa <CPUCF+0x22>
 8002ef8:	4dd8      	ldr	r5, [pc, #864]	; (800325c <CPUCF+0xa84>)
 8002efa:	f001 fe2d 	bl	8004b58 <CPU+0x14c4>
 8002efe:	76a0      	strb	r0, [r4, #26]
 8002f00:	f001 fe2a 	bl	8004b58 <CPU+0x14c4>
 8002f04:	73e0      	strb	r0, [r4, #15]
 8002f06:	f001 fe27 	bl	8004b58 <CPU+0x14c4>
 8002f0a:	73a0      	strb	r0, [r4, #14]
 8002f0c:	f001 fe24 	bl	8004b58 <CPU+0x14c4>
 8002f10:	72e0      	strb	r0, [r4, #11]
 8002f12:	f001 fe21 	bl	8004b58 <CPU+0x14c4>
 8002f16:	72a0      	strb	r0, [r4, #10]
 8002f18:	f001 fe1e 	bl	8004b58 <CPU+0x14c4>
 8002f1c:	71e0      	strb	r0, [r4, #7]
 8002f1e:	f001 fe1b 	bl	8004b58 <CPU+0x14c4>
 8002f22:	71a0      	strb	r0, [r4, #6]
 8002f24:	f001 fe18 	bl	8004b58 <CPU+0x14c4>
 8002f28:	70e0      	strb	r0, [r4, #3]
 8002f2a:	f001 fe15 	bl	8004b58 <CPU+0x14c4>
 8002f2e:	70a0      	strb	r0, [r4, #2]
 8002f30:	202c      	movs	r0, #44	; 0x2c
 8002f32:	f7ff fc62 	bl	80027fa <CPUCF+0x22>
 8002f36:	8a63      	ldrh	r3, [r4, #18]
 8002f38:	2008      	movs	r0, #8
 8002f3a:	8163      	strh	r3, [r4, #10]
 8002f3c:	f7ff fc5d 	bl	80027fa <CPUCF+0x22>
 8002f40:	4dc7      	ldr	r5, [pc, #796]	; (8003260 <CPUCF+0xa88>)
 8002f42:	78a0      	ldrb	r0, [r4, #2]
 8002f44:	f001 fe08 	bl	8004b58 <CPU+0x14c4>
 8002f48:	78e0      	ldrb	r0, [r4, #3]
 8002f4a:	f001 fe05 	bl	8004b58 <CPU+0x14c4>
 8002f4e:	79a0      	ldrb	r0, [r4, #6]
 8002f50:	f001 fe02 	bl	8004b58 <CPU+0x14c4>
 8002f54:	79e0      	ldrb	r0, [r4, #7]
 8002f56:	f001 fdff 	bl	8004b58 <CPU+0x14c4>
 8002f5a:	7aa0      	ldrb	r0, [r4, #10]
 8002f5c:	f001 fdfc 	bl	8004b58 <CPU+0x14c4>
 8002f60:	7ae0      	ldrb	r0, [r4, #11]
 8002f62:	f001 fdf9 	bl	8004b58 <CPU+0x14c4>
 8002f66:	7ba0      	ldrb	r0, [r4, #14]
 8002f68:	f001 fdf6 	bl	8004b58 <CPU+0x14c4>
 8002f6c:	7be0      	ldrb	r0, [r4, #15]
 8002f6e:	f001 fdf3 	bl	8004b58 <CPU+0x14c4>
 8002f72:	7ea0      	ldrb	r0, [r4, #26]
 8002f74:	f001 fdf0 	bl	8004b58 <CPU+0x14c4>
 8002f78:	7960      	ldrb	r0, [r4, #5]
 8002f7a:	f001 fded 	bl	8004b58 <CPU+0x14c4>
 8002f7e:	7a60      	ldrb	r0, [r4, #9]
 8002f80:	f001 fdea 	bl	8004b58 <CPU+0x14c4>
 8002f84:	7b60      	ldrb	r0, [r4, #13]
 8002f86:	f001 fde7 	bl	8004b58 <CPU+0x14c4>
 8002f8a:	203c      	movs	r0, #60	; 0x3c
 8002f8c:	f7ff fc35 	bl	80027fa <CPUCF+0x22>
 8002f90:	4db3      	ldr	r5, [pc, #716]	; (8003260 <CPUCF+0xa88>)
 8002f92:	78a0      	ldrb	r0, [r4, #2]
 8002f94:	f001 fde0 	bl	8004b58 <CPU+0x14c4>
 8002f98:	78e0      	ldrb	r0, [r4, #3]
 8002f9a:	f001 fddd 	bl	8004b58 <CPU+0x14c4>
 8002f9e:	79a0      	ldrb	r0, [r4, #6]
 8002fa0:	f001 fdda 	bl	8004b58 <CPU+0x14c4>
 8002fa4:	79e0      	ldrb	r0, [r4, #7]
 8002fa6:	f001 fdd7 	bl	8004b58 <CPU+0x14c4>
 8002faa:	7aa0      	ldrb	r0, [r4, #10]
 8002fac:	f001 fdd4 	bl	8004b58 <CPU+0x14c4>
 8002fb0:	7ae0      	ldrb	r0, [r4, #11]
 8002fb2:	f001 fdd1 	bl	8004b58 <CPU+0x14c4>
 8002fb6:	7ba0      	ldrb	r0, [r4, #14]
 8002fb8:	f001 fdce 	bl	8004b58 <CPU+0x14c4>
 8002fbc:	7be0      	ldrb	r0, [r4, #15]
 8002fbe:	f001 fdcb 	bl	8004b58 <CPU+0x14c4>
 8002fc2:	7ea0      	ldrb	r0, [r4, #26]
 8002fc4:	f001 fdc8 	bl	8004b58 <CPU+0x14c4>
 8002fc8:	2030      	movs	r0, #48	; 0x30
 8002fca:	f7ff fc16 	bl	80027fa <CPUCF+0x22>
 8002fce:	4ba3      	ldr	r3, [pc, #652]	; (800325c <CPUCF+0xa84>)
 8002fd0:	f001 fdc0 	bl	8004b54 <CPU+0x14c0>
 8002fd4:	71a0      	strb	r0, [r4, #6]
 8002fd6:	200c      	movs	r0, #12
 8002fd8:	f7ff fc0f 	bl	80027fa <CPUCF+0x22>
 8002fdc:	4b9f      	ldr	r3, [pc, #636]	; (800325c <CPUCF+0xa84>)
 8002fde:	f001 fdb9 	bl	8004b54 <CPU+0x14c0>
 8002fe2:	71e0      	strb	r0, [r4, #7]
 8002fe4:	200c      	movs	r0, #12
 8002fe6:	f7ff fc08 	bl	80027fa <CPUCF+0x22>
 8002fea:	4b9c      	ldr	r3, [pc, #624]	; (800325c <CPUCF+0xa84>)
 8002fec:	f001 fdb2 	bl	8004b54 <CPU+0x14c0>
 8002ff0:	70a0      	strb	r0, [r4, #2]
 8002ff2:	200c      	movs	r0, #12
 8002ff4:	f7ff fc01 	bl	80027fa <CPUCF+0x22>
 8002ff8:	4b98      	ldr	r3, [pc, #608]	; (800325c <CPUCF+0xa84>)
 8002ffa:	f001 fdab 	bl	8004b54 <CPU+0x14c0>
 8002ffe:	70e0      	strb	r0, [r4, #3]
 8003000:	200c      	movs	r0, #12
 8003002:	f7ff fbfa 	bl	80027fa <CPUCF+0x22>
 8003006:	79a0      	ldrb	r0, [r4, #6]
 8003008:	4b95      	ldr	r3, [pc, #596]	; (8003260 <CPUCF+0xa88>)
 800300a:	f001 fda3 	bl	8004b54 <CPU+0x14c0>
 800300e:	200c      	movs	r0, #12
 8003010:	f7ff fbf3 	bl	80027fa <CPUCF+0x22>
 8003014:	79e0      	ldrb	r0, [r4, #7]
 8003016:	4b92      	ldr	r3, [pc, #584]	; (8003260 <CPUCF+0xa88>)
 8003018:	f001 fd9c 	bl	8004b54 <CPU+0x14c0>
 800301c:	200c      	movs	r0, #12
 800301e:	f7ff fbec 	bl	80027fa <CPUCF+0x22>
 8003022:	78a0      	ldrb	r0, [r4, #2]
 8003024:	4b8e      	ldr	r3, [pc, #568]	; (8003260 <CPUCF+0xa88>)
 8003026:	f001 fd95 	bl	8004b54 <CPU+0x14c0>
 800302a:	200c      	movs	r0, #12
 800302c:	f7ff fbe5 	bl	80027fa <CPUCF+0x22>
 8003030:	78e0      	ldrb	r0, [r4, #3]
 8003032:	4b8b      	ldr	r3, [pc, #556]	; (8003260 <CPUCF+0xa88>)
 8003034:	f001 fd8e 	bl	8004b54 <CPU+0x14c0>
 8003038:	200c      	movs	r0, #12
 800303a:	f7ff fbde 	bl	80027fa <CPUCF+0x22>
 800303e:	200c      	movs	r0, #12
 8003040:	f7ff fbdb 	bl	80027fa <CPUCF+0x22>
 8003044:	8861      	ldrh	r1, [r4, #2]
 8003046:	88e0      	ldrh	r0, [r4, #6]
 8003048:	4b86      	ldr	r3, [pc, #536]	; (8003264 <CPUCF+0xa8c>)
 800304a:	f001 fd83 	bl	8004b54 <CPU+0x14c0>
 800304e:	80e0      	strh	r0, [r4, #6]
 8003050:	2010      	movs	r0, #16
 8003052:	f7ff fbd2 	bl	80027fa <CPUCF+0x22>
 8003056:	2001      	movs	r0, #1
 8003058:	4983      	ldr	r1, [pc, #524]	; (8003268 <CPUCF+0xa90>)
 800305a:	4b84      	ldr	r3, [pc, #528]	; (800326c <CPUCF+0xa94>)
 800305c:	f001 fd7a 	bl	8004b54 <CPU+0x14c0>
 8003060:	2010      	movs	r0, #16
 8003062:	f7ff fbca 	bl	80027fa <CPUCF+0x22>
 8003066:	4b82      	ldr	r3, [pc, #520]	; (8003270 <CPUCF+0xa98>)
 8003068:	f001 fd74 	bl	8004b54 <CPU+0x14c0>
 800306c:	8260      	strh	r0, [r4, #18]
 800306e:	2010      	movs	r0, #16
 8003070:	f7ff fbc3 	bl	80027fa <CPUCF+0x22>
 8003074:	2002      	movs	r0, #2
 8003076:	497f      	ldr	r1, [pc, #508]	; (8003274 <CPUCF+0xa9c>)
 8003078:	4b7c      	ldr	r3, [pc, #496]	; (800326c <CPUCF+0xa94>)
 800307a:	f001 fd6b 	bl	8004b54 <CPU+0x14c0>
 800307e:	2010      	movs	r0, #16
 8003080:	f7ff fbbb 	bl	80027fa <CPUCF+0x22>
 8003084:	4b7a      	ldr	r3, [pc, #488]	; (8003270 <CPUCF+0xa98>)
 8003086:	f001 fd65 	bl	8004b54 <CPU+0x14c0>
 800308a:	4b76      	ldr	r3, [pc, #472]	; (8003264 <CPUCF+0xa8c>)
 800308c:	0001      	movs	r1, r0
 800308e:	8a60      	ldrh	r0, [r4, #18]
 8003090:	f001 fd60 	bl	8004b54 <CPU+0x14c0>
 8003094:	2010      	movs	r0, #16
 8003096:	f7ff fbb0 	bl	80027fa <CPUCF+0x22>
 800309a:	2002      	movs	r0, #2
 800309c:	4976      	ldr	r1, [pc, #472]	; (8003278 <CPUCF+0xaa0>)
 800309e:	4b73      	ldr	r3, [pc, #460]	; (800326c <CPUCF+0xa94>)
 80030a0:	f001 fd58 	bl	8004b54 <CPU+0x14c0>
 80030a4:	2010      	movs	r0, #16
 80030a6:	f7ff fba8 	bl	80027fa <CPUCF+0x22>
 80030aa:	4b71      	ldr	r3, [pc, #452]	; (8003270 <CPUCF+0xa98>)
 80030ac:	f001 fd52 	bl	8004b54 <CPU+0x14c0>
 80030b0:	4b6c      	ldr	r3, [pc, #432]	; (8003264 <CPUCF+0xa8c>)
 80030b2:	0001      	movs	r1, r0
 80030b4:	8a60      	ldrh	r0, [r4, #18]
 80030b6:	f001 fd4d 	bl	8004b54 <CPU+0x14c0>
 80030ba:	8260      	strh	r0, [r4, #18]
 80030bc:	2010      	movs	r0, #16
 80030be:	f7ff fb9c 	bl	80027fa <CPUCF+0x22>
 80030c2:	2002      	movs	r0, #2
 80030c4:	496d      	ldr	r1, [pc, #436]	; (800327c <CPUCF+0xaa4>)
 80030c6:	4b69      	ldr	r3, [pc, #420]	; (800326c <CPUCF+0xa94>)
 80030c8:	f001 fd44 	bl	8004b54 <CPU+0x14c0>
 80030cc:	2010      	movs	r0, #16
 80030ce:	f7ff fb94 	bl	80027fa <CPUCF+0x22>
 80030d2:	4b67      	ldr	r3, [pc, #412]	; (8003270 <CPUCF+0xa98>)
 80030d4:	f001 fd3e 	bl	8004b54 <CPU+0x14c0>
 80030d8:	4b69      	ldr	r3, [pc, #420]	; (8003280 <CPUCF+0xaa8>)
 80030da:	0001      	movs	r1, r0
 80030dc:	8a60      	ldrh	r0, [r4, #18]
 80030de:	f001 fd39 	bl	8004b54 <CPU+0x14c0>
 80030e2:	8260      	strh	r0, [r4, #18]
 80030e4:	2010      	movs	r0, #16
 80030e6:	f7ff fb88 	bl	80027fa <CPUCF+0x22>
 80030ea:	2002      	movs	r0, #2
 80030ec:	4965      	ldr	r1, [pc, #404]	; (8003284 <CPUCF+0xaac>)
 80030ee:	4b5f      	ldr	r3, [pc, #380]	; (800326c <CPUCF+0xa94>)
 80030f0:	f001 fd30 	bl	8004b54 <CPU+0x14c0>
 80030f4:	2010      	movs	r0, #16
 80030f6:	f7ff fb80 	bl	80027fa <CPUCF+0x22>
 80030fa:	2002      	movs	r0, #2
 80030fc:	4962      	ldr	r1, [pc, #392]	; (8003288 <CPUCF+0xab0>)
 80030fe:	4b5b      	ldr	r3, [pc, #364]	; (800326c <CPUCF+0xa94>)
 8003100:	f001 fd28 	bl	8004b54 <CPU+0x14c0>
 8003104:	2010      	movs	r0, #16
 8003106:	f7ff fb78 	bl	80027fa <CPUCF+0x22>
 800310a:	2002      	movs	r0, #2
 800310c:	495f      	ldr	r1, [pc, #380]	; (800328c <CPUCF+0xab4>)
 800310e:	4b57      	ldr	r3, [pc, #348]	; (800326c <CPUCF+0xa94>)
 8003110:	f001 fd20 	bl	8004b54 <CPU+0x14c0>
 8003114:	2010      	movs	r0, #16
 8003116:	f7ff fb70 	bl	80027fa <CPUCF+0x22>
 800311a:	2002      	movs	r0, #2
 800311c:	495c      	ldr	r1, [pc, #368]	; (8003290 <CPUCF+0xab8>)
 800311e:	4b53      	ldr	r3, [pc, #332]	; (800326c <CPUCF+0xa94>)
 8003120:	f001 fd18 	bl	8004b54 <CPU+0x14c0>
 8003124:	2010      	movs	r0, #16
 8003126:	f7ff fb68 	bl	80027fa <CPUCF+0x22>
 800312a:	4b51      	ldr	r3, [pc, #324]	; (8003270 <CPUCF+0xa98>)
 800312c:	f001 fd12 	bl	8004b54 <CPU+0x14c0>
 8003130:	4b58      	ldr	r3, [pc, #352]	; (8003294 <CPUCF+0xabc>)
 8003132:	0001      	movs	r1, r0
 8003134:	88e0      	ldrh	r0, [r4, #6]
 8003136:	f001 fd0d 	bl	8004b54 <CPU+0x14c0>
 800313a:	80e0      	strh	r0, [r4, #6]
 800313c:	2010      	movs	r0, #16
 800313e:	f7ff fb5c 	bl	80027fa <CPUCF+0x22>
 8003142:	4b4b      	ldr	r3, [pc, #300]	; (8003270 <CPUCF+0xa98>)
 8003144:	f001 fd06 	bl	8004b54 <CPU+0x14c0>
 8003148:	4b52      	ldr	r3, [pc, #328]	; (8003294 <CPUCF+0xabc>)
 800314a:	0001      	movs	r1, r0
 800314c:	8860      	ldrh	r0, [r4, #2]
 800314e:	f001 fd01 	bl	8004b54 <CPU+0x14c0>
 8003152:	8060      	strh	r0, [r4, #2]
 8003154:	2010      	movs	r0, #16
 8003156:	f7ff fb50 	bl	80027fa <CPUCF+0x22>
 800315a:	4b45      	ldr	r3, [pc, #276]	; (8003270 <CPUCF+0xa98>)
 800315c:	f001 fcfa 	bl	8004b54 <CPU+0x14c0>
 8003160:	4b4d      	ldr	r3, [pc, #308]	; (8003298 <CPUCF+0xac0>)
 8003162:	0001      	movs	r1, r0
 8003164:	88e0      	ldrh	r0, [r4, #6]
 8003166:	f001 fcf5 	bl	8004b54 <CPU+0x14c0>
 800316a:	80e0      	strh	r0, [r4, #6]
 800316c:	2010      	movs	r0, #16
 800316e:	f7ff fb44 	bl	80027fa <CPUCF+0x22>
 8003172:	4b3f      	ldr	r3, [pc, #252]	; (8003270 <CPUCF+0xa98>)
 8003174:	f001 fcee 	bl	8004b54 <CPU+0x14c0>
 8003178:	4b47      	ldr	r3, [pc, #284]	; (8003298 <CPUCF+0xac0>)
 800317a:	0001      	movs	r1, r0
 800317c:	8860      	ldrh	r0, [r4, #2]
 800317e:	f001 fce9 	bl	8004b54 <CPU+0x14c0>
 8003182:	8060      	strh	r0, [r4, #2]
 8003184:	2010      	movs	r0, #16
 8003186:	f7ff fb38 	bl	80027fa <CPUCF+0x22>
 800318a:	2001      	movs	r0, #1
 800318c:	4943      	ldr	r1, [pc, #268]	; (800329c <CPUCF+0xac4>)
 800318e:	4b37      	ldr	r3, [pc, #220]	; (800326c <CPUCF+0xa94>)
 8003190:	f001 fce0 	bl	8004b54 <CPU+0x14c0>
 8003194:	2010      	movs	r0, #16
 8003196:	f7ff fb30 	bl	80027fa <CPUCF+0x22>
 800319a:	4b35      	ldr	r3, [pc, #212]	; (8003270 <CPUCF+0xa98>)
 800319c:	f001 fcda 	bl	8004b54 <CPU+0x14c0>
 80031a0:	7961      	ldrb	r1, [r4, #5]
 80031a2:	0005      	movs	r5, r0
 80031a4:	0409      	lsls	r1, r1, #16
 80031a6:	4301      	orrs	r1, r0
 80031a8:	4e3d      	ldr	r6, [pc, #244]	; (80032a0 <CPUCF+0xac8>)
 80031aa:	2001      	movs	r0, #1
 80031ac:	f001 fcd5 	bl	8004b5a <CPU+0x14c6>
 80031b0:	7963      	ldrb	r3, [r4, #5]
 80031b2:	1c69      	adds	r1, r5, #1
 80031b4:	0409      	lsls	r1, r1, #16
 80031b6:	041b      	lsls	r3, r3, #16
 80031b8:	0c09      	lsrs	r1, r1, #16
 80031ba:	74e0      	strb	r0, [r4, #19]
 80031bc:	4319      	orrs	r1, r3
 80031be:	2001      	movs	r0, #1
 80031c0:	f001 fccb 	bl	8004b5a <CPU+0x14c6>
 80031c4:	74a0      	strb	r0, [r4, #18]
 80031c6:	2018      	movs	r0, #24
 80031c8:	f7ff fb17 	bl	80027fa <CPUCF+0x22>
 80031cc:	f001 fcc4 	bl	8004b58 <CPU+0x14c4>
 80031d0:	0600      	lsls	r0, r0, #24
 80031d2:	4b34      	ldr	r3, [pc, #208]	; (80032a4 <CPUCF+0xacc>)
 80031d4:	1600      	asrs	r0, r0, #24
 80031d6:	8a65      	ldrh	r5, [r4, #18]
 80031d8:	f001 fcbc 	bl	8004b54 <CPU+0x14c0>
 80031dc:	182d      	adds	r5, r5, r0
 80031de:	042d      	lsls	r5, r5, #16
 80031e0:	0c2d      	lsrs	r5, r5, #16
 80031e2:	7be2      	ldrb	r2, [r4, #15]
 80031e4:	0029      	movs	r1, r5
 80031e6:	2001      	movs	r0, #1
 80031e8:	4e2f      	ldr	r6, [pc, #188]	; (80032a8 <CPUCF+0xad0>)
 80031ea:	f001 fcb6 	bl	8004b5a <CPU+0x14c6>
 80031ee:	1c69      	adds	r1, r5, #1
 80031f0:	0409      	lsls	r1, r1, #16
 80031f2:	2001      	movs	r0, #1
 80031f4:	7ba2      	ldrb	r2, [r4, #14]
 80031f6:	0c09      	lsrs	r1, r1, #16
 80031f8:	f001 fcaf 	bl	8004b5a <CPU+0x14c6>
 80031fc:	2018      	movs	r0, #24
 80031fe:	f7ff fafc 	bl	80027fa <CPUCF+0x22>
 8003202:	7b61      	ldrb	r1, [r4, #13]
 8003204:	89e5      	ldrh	r5, [r4, #14]
 8003206:	0409      	lsls	r1, r1, #16
 8003208:	4329      	orrs	r1, r5
 800320a:	4e25      	ldr	r6, [pc, #148]	; (80032a0 <CPUCF+0xac8>)
 800320c:	2001      	movs	r0, #1
 800320e:	f001 fca4 	bl	8004b5a <CPU+0x14c6>
 8003212:	7b63      	ldrb	r3, [r4, #13]
 8003214:	1c69      	adds	r1, r5, #1
 8003216:	0409      	lsls	r1, r1, #16
 8003218:	041b      	lsls	r3, r3, #16
 800321a:	0c09      	lsrs	r1, r1, #16
 800321c:	71e0      	strb	r0, [r4, #7]
 800321e:	4319      	orrs	r1, r3
 8003220:	2001      	movs	r0, #1
 8003222:	f001 fc9a 	bl	8004b5a <CPU+0x14c6>
 8003226:	71a0      	strb	r0, [r4, #6]
 8003228:	2014      	movs	r0, #20
 800322a:	f7ff fae6 	bl	80027fa <CPUCF+0x22>
 800322e:	7b61      	ldrb	r1, [r4, #13]
 8003230:	89e5      	ldrh	r5, [r4, #14]
 8003232:	0409      	lsls	r1, r1, #16
 8003234:	4329      	orrs	r1, r5
 8003236:	4e1a      	ldr	r6, [pc, #104]	; (80032a0 <CPUCF+0xac8>)
 8003238:	2001      	movs	r0, #1
 800323a:	f001 fc8e 	bl	8004b5a <CPU+0x14c6>
 800323e:	7b63      	ldrb	r3, [r4, #13]
 8003240:	1c69      	adds	r1, r5, #1
 8003242:	0409      	lsls	r1, r1, #16
 8003244:	041b      	lsls	r3, r3, #16
 8003246:	0c09      	lsrs	r1, r1, #16
 8003248:	70e0      	strb	r0, [r4, #3]
 800324a:	4319      	orrs	r1, r3
 800324c:	2001      	movs	r0, #1
 800324e:	f001 fc84 	bl	8004b5a <CPU+0x14c6>
 8003252:	70a0      	strb	r0, [r4, #2]
 8003254:	2014      	movs	r0, #20
 8003256:	f7ff fad0 	bl	80027fa <CPUCF+0x22>
 800325a:	46c0      	nop			; (mov r8, r8)
 800325c:	08005415 	stmdaeq	r0, {r0, r2, r4, sl, ip, lr}
 8003260:	08005439 	stmdaeq	r0, {r0, r3, r4, r5, sl, ip, lr}
 8003264:	08005599 	stmdaeq	r0, {r0, r3, r4, r7, r8, sl, ip, lr}
 8003268:	00004fcf 	andeq	r4, r0, pc, asr #31
 800326c:	080060d5 	stmdaeq	r0, {r0, r2, r4, r6, r7, sp, lr}
 8003270:	08005481 	stmdaeq	r0, {r0, r7, sl, ip, lr}
 8003274:	00006dcf 	andeq	r6, r0, pc, asr #27
 8003278:	00006bcf 	andeq	r6, r0, pc, asr #23
 800327c:	000069cf 	andeq	r6, r0, pc, asr #19
 8003280:	080056b1 	stmdaeq	r0, {r0, r4, r5, r7, r9, sl, ip, lr}
 8003284:	000067cf 	andeq	r6, r0, pc, asr #15
 8003288:	000066cf 	andeq	r6, r0, pc, asr #13
 800328c:	000065cf 	andeq	r6, r0, pc, asr #11
 8003290:	000064cf 	andeq	r6, r0, pc, asr #9
 8003294:	08005999 	stmdaeq	r0, {r0, r3, r4, r7, r8, fp, ip, lr}
 8003298:	08005709 	stmdaeq	r0, {r0, r3, r8, r9, sl, ip, lr}
 800329c:	00005fcf 	andeq	r5, r0, pc, asr #31
 80032a0:	08004b5d 	stmdaeq	r0, {r0, r2, r3, r4, r6, r8, r9, fp, lr}
 80032a4:	08005511 	stmdaeq	r0, {r0, r4, r8, sl, ip, lr}
 80032a8:	08004be9 	stmdaeq	r0, {r0, r3, r5, r6, r7, r8, r9, fp, lr}
 80032ac:	7b61      	ldrb	r1, [r4, #13]
 80032ae:	89e5      	ldrh	r5, [r4, #14]
 80032b0:	0409      	lsls	r1, r1, #16
 80032b2:	79e2      	ldrb	r2, [r4, #7]
 80032b4:	4329      	orrs	r1, r5
 80032b6:	2001      	movs	r0, #1
 80032b8:	4ee4      	ldr	r6, [pc, #912]	; (800364c <CPUCF+0xe74>)
 80032ba:	f001 fc4e 	bl	8004b5a <CPU+0x14c6>
 80032be:	7b63      	ldrb	r3, [r4, #13]
 80032c0:	1c69      	adds	r1, r5, #1
 80032c2:	0409      	lsls	r1, r1, #16
 80032c4:	041b      	lsls	r3, r3, #16
 80032c6:	0c09      	lsrs	r1, r1, #16
 80032c8:	2001      	movs	r0, #1
 80032ca:	79a2      	ldrb	r2, [r4, #6]
 80032cc:	4319      	orrs	r1, r3
 80032ce:	f001 fc44 	bl	8004b5a <CPU+0x14c6>
 80032d2:	2014      	movs	r0, #20
 80032d4:	f7ff fa91 	bl	80027fa <CPUCF+0x22>
 80032d8:	7b61      	ldrb	r1, [r4, #13]
 80032da:	89e5      	ldrh	r5, [r4, #14]
 80032dc:	0409      	lsls	r1, r1, #16
 80032de:	78e2      	ldrb	r2, [r4, #3]
 80032e0:	4329      	orrs	r1, r5
 80032e2:	2001      	movs	r0, #1
 80032e4:	4ed9      	ldr	r6, [pc, #868]	; (800364c <CPUCF+0xe74>)
 80032e6:	f001 fc38 	bl	8004b5a <CPU+0x14c6>
 80032ea:	7b63      	ldrb	r3, [r4, #13]
 80032ec:	1c69      	adds	r1, r5, #1
 80032ee:	0409      	lsls	r1, r1, #16
 80032f0:	041b      	lsls	r3, r3, #16
 80032f2:	0c09      	lsrs	r1, r1, #16
 80032f4:	2001      	movs	r0, #1
 80032f6:	78a2      	ldrb	r2, [r4, #2]
 80032f8:	4319      	orrs	r1, r3
 80032fa:	f001 fc2e 	bl	8004b5a <CPU+0x14c6>
 80032fe:	2014      	movs	r0, #20
 8003300:	f7ff fa7b 	bl	80027fa <CPUCF+0x22>
 8003304:	7b61      	ldrb	r1, [r4, #13]
 8003306:	89e5      	ldrh	r5, [r4, #14]
 8003308:	0409      	lsls	r1, r1, #16
 800330a:	4329      	orrs	r1, r5
 800330c:	4ed0      	ldr	r6, [pc, #832]	; (8003650 <CPUCF+0xe78>)
 800330e:	2001      	movs	r0, #1
 8003310:	f001 fc23 	bl	8004b5a <CPU+0x14c6>
 8003314:	7b63      	ldrb	r3, [r4, #13]
 8003316:	1c69      	adds	r1, r5, #1
 8003318:	0409      	lsls	r1, r1, #16
 800331a:	041b      	lsls	r3, r3, #16
 800331c:	0c09      	lsrs	r1, r1, #16
 800331e:	73e0      	strb	r0, [r4, #15]
 8003320:	4319      	orrs	r1, r3
 8003322:	2001      	movs	r0, #1
 8003324:	f001 fc19 	bl	8004b5a <CPU+0x14c6>
 8003328:	73a0      	strb	r0, [r4, #14]
 800332a:	2014      	movs	r0, #20
 800332c:	f7ff fa65 	bl	80027fa <CPUCF+0x22>
 8003330:	7b61      	ldrb	r1, [r4, #13]
 8003332:	89e5      	ldrh	r5, [r4, #14]
 8003334:	0409      	lsls	r1, r1, #16
 8003336:	4329      	orrs	r1, r5
 8003338:	4ec5      	ldr	r6, [pc, #788]	; (8003650 <CPUCF+0xe78>)
 800333a:	2001      	movs	r0, #1
 800333c:	f001 fc0d 	bl	8004b5a <CPU+0x14c6>
 8003340:	7b63      	ldrb	r3, [r4, #13]
 8003342:	1c69      	adds	r1, r5, #1
 8003344:	0409      	lsls	r1, r1, #16
 8003346:	041b      	lsls	r3, r3, #16
 8003348:	0c09      	lsrs	r1, r1, #16
 800334a:	72e0      	strb	r0, [r4, #11]
 800334c:	4319      	orrs	r1, r3
 800334e:	2001      	movs	r0, #1
 8003350:	f001 fc03 	bl	8004b5a <CPU+0x14c6>
 8003354:	72a0      	strb	r0, [r4, #10]
 8003356:	2014      	movs	r0, #20
 8003358:	f7ff fa4f 	bl	80027fa <CPUCF+0x22>
 800335c:	8863      	ldrh	r3, [r4, #2]
 800335e:	2008      	movs	r0, #8
 8003360:	80e3      	strh	r3, [r4, #6]
 8003362:	f7ff fa4a 	bl	80027fa <CPUCF+0x22>
 8003366:	8963      	ldrh	r3, [r4, #10]
 8003368:	2008      	movs	r0, #8
 800336a:	8063      	strh	r3, [r4, #2]
 800336c:	f7ff fa45 	bl	80027fa <CPUCF+0x22>
 8003370:	2008      	movs	r0, #8
 8003372:	f7ff fa42 	bl	80027fa <CPUCF+0x22>
 8003376:	89e1      	ldrh	r1, [r4, #14]
 8003378:	8860      	ldrh	r0, [r4, #2]
 800337a:	4bb6      	ldr	r3, [pc, #728]	; (8003654 <CPUCF+0xe7c>)
 800337c:	f001 fbea 	bl	8004b54 <CPU+0x14c0>
 8003380:	2010      	movs	r0, #16
 8003382:	f7ff fa3a 	bl	80027fa <CPUCF+0x22>
 8003386:	8961      	ldrh	r1, [r4, #10]
 8003388:	8860      	ldrh	r0, [r4, #2]
 800338a:	4bb2      	ldr	r3, [pc, #712]	; (8003654 <CPUCF+0xe7c>)
 800338c:	f001 fbe2 	bl	8004b54 <CPU+0x14c0>
 8003390:	2010      	movs	r0, #16
 8003392:	f7ff fa32 	bl	80027fa <CPUCF+0x22>
 8003396:	88e1      	ldrh	r1, [r4, #6]
 8003398:	8860      	ldrh	r0, [r4, #2]
 800339a:	4bae      	ldr	r3, [pc, #696]	; (8003654 <CPUCF+0xe7c>)
 800339c:	f001 fbda 	bl	8004b54 <CPU+0x14c0>
 80033a0:	2010      	movs	r0, #16
 80033a2:	f7ff fa2a 	bl	80027fa <CPUCF+0x22>
 80033a6:	8860      	ldrh	r0, [r4, #2]
 80033a8:	4baa      	ldr	r3, [pc, #680]	; (8003654 <CPUCF+0xe7c>)
 80033aa:	0001      	movs	r1, r0
 80033ac:	f001 fbd2 	bl	8004b54 <CPU+0x14c0>
 80033b0:	2010      	movs	r0, #16
 80033b2:	f7ff fa22 	bl	80027fa <CPUCF+0x22>
 80033b6:	7b61      	ldrb	r1, [r4, #13]
 80033b8:	89e5      	ldrh	r5, [r4, #14]
 80033ba:	0409      	lsls	r1, r1, #16
 80033bc:	7ae2      	ldrb	r2, [r4, #11]
 80033be:	4329      	orrs	r1, r5
 80033c0:	2001      	movs	r0, #1
 80033c2:	4ea2      	ldr	r6, [pc, #648]	; (800364c <CPUCF+0xe74>)
 80033c4:	f001 fbc9 	bl	8004b5a <CPU+0x14c6>
 80033c8:	7b63      	ldrb	r3, [r4, #13]
 80033ca:	1c69      	adds	r1, r5, #1
 80033cc:	0409      	lsls	r1, r1, #16
 80033ce:	041b      	lsls	r3, r3, #16
 80033d0:	0c09      	lsrs	r1, r1, #16
 80033d2:	2001      	movs	r0, #1
 80033d4:	7aa2      	ldrb	r2, [r4, #10]
 80033d6:	4319      	orrs	r1, r3
 80033d8:	f001 fbbf 	bl	8004b5a <CPU+0x14c6>
 80033dc:	2014      	movs	r0, #20
 80033de:	f7ff fa0c 	bl	80027fa <CPUCF+0x22>
 80033e2:	7a61      	ldrb	r1, [r4, #9]
 80033e4:	8965      	ldrh	r5, [r4, #10]
 80033e6:	0409      	lsls	r1, r1, #16
 80033e8:	79e2      	ldrb	r2, [r4, #7]
 80033ea:	4329      	orrs	r1, r5
 80033ec:	2001      	movs	r0, #1
 80033ee:	4e97      	ldr	r6, [pc, #604]	; (800364c <CPUCF+0xe74>)
 80033f0:	f001 fbb3 	bl	8004b5a <CPU+0x14c6>
 80033f4:	7a63      	ldrb	r3, [r4, #9]
 80033f6:	1c69      	adds	r1, r5, #1
 80033f8:	0409      	lsls	r1, r1, #16
 80033fa:	041b      	lsls	r3, r3, #16
 80033fc:	0c09      	lsrs	r1, r1, #16
 80033fe:	2001      	movs	r0, #1
 8003400:	79a2      	ldrb	r2, [r4, #6]
 8003402:	4319      	orrs	r1, r3
 8003404:	f001 fba9 	bl	8004b5a <CPU+0x14c6>
 8003408:	2014      	movs	r0, #20
 800340a:	f7ff f9f6 	bl	80027fa <CPUCF+0x22>
 800340e:	7a61      	ldrb	r1, [r4, #9]
 8003410:	8965      	ldrh	r5, [r4, #10]
 8003412:	0409      	lsls	r1, r1, #16
 8003414:	78e2      	ldrb	r2, [r4, #3]
 8003416:	4329      	orrs	r1, r5
 8003418:	2001      	movs	r0, #1
 800341a:	4e8c      	ldr	r6, [pc, #560]	; (800364c <CPUCF+0xe74>)
 800341c:	f001 fb9d 	bl	8004b5a <CPU+0x14c6>
 8003420:	7a63      	ldrb	r3, [r4, #9]
 8003422:	1c69      	adds	r1, r5, #1
 8003424:	0409      	lsls	r1, r1, #16
 8003426:	041b      	lsls	r3, r3, #16
 8003428:	0c09      	lsrs	r1, r1, #16
 800342a:	2001      	movs	r0, #1
 800342c:	78a2      	ldrb	r2, [r4, #2]
 800342e:	4319      	orrs	r1, r3
 8003430:	f001 fb93 	bl	8004b5a <CPU+0x14c6>
 8003434:	2014      	movs	r0, #20
 8003436:	f7ff f9e0 	bl	80027fa <CPUCF+0x22>
 800343a:	7a61      	ldrb	r1, [r4, #9]
 800343c:	8965      	ldrh	r5, [r4, #10]
 800343e:	0409      	lsls	r1, r1, #16
 8003440:	4329      	orrs	r1, r5
 8003442:	4e83      	ldr	r6, [pc, #524]	; (8003650 <CPUCF+0xe78>)
 8003444:	2001      	movs	r0, #1
 8003446:	f001 fb88 	bl	8004b5a <CPU+0x14c6>
 800344a:	7a63      	ldrb	r3, [r4, #9]
 800344c:	1c69      	adds	r1, r5, #1
 800344e:	0409      	lsls	r1, r1, #16
 8003450:	041b      	lsls	r3, r3, #16
 8003452:	0c09      	lsrs	r1, r1, #16
 8003454:	73e0      	strb	r0, [r4, #15]
 8003456:	4319      	orrs	r1, r3
 8003458:	2001      	movs	r0, #1
 800345a:	f001 fb7e 	bl	8004b5a <CPU+0x14c6>
 800345e:	73a0      	strb	r0, [r4, #14]
 8003460:	2014      	movs	r0, #20
 8003462:	f7ff f9ca 	bl	80027fa <CPUCF+0x22>
 8003466:	7a61      	ldrb	r1, [r4, #9]
 8003468:	8965      	ldrh	r5, [r4, #10]
 800346a:	0409      	lsls	r1, r1, #16
 800346c:	4329      	orrs	r1, r5
 800346e:	4e78      	ldr	r6, [pc, #480]	; (8003650 <CPUCF+0xe78>)
 8003470:	2001      	movs	r0, #1
 8003472:	f001 fb72 	bl	8004b5a <CPU+0x14c6>
 8003476:	7a63      	ldrb	r3, [r4, #9]
 8003478:	1c69      	adds	r1, r5, #1
 800347a:	0409      	lsls	r1, r1, #16
 800347c:	041b      	lsls	r3, r3, #16
 800347e:	0c09      	lsrs	r1, r1, #16
 8003480:	72e0      	strb	r0, [r4, #11]
 8003482:	4319      	orrs	r1, r3
 8003484:	2001      	movs	r0, #1
 8003486:	f001 fb68 	bl	8004b5a <CPU+0x14c6>
 800348a:	72a0      	strb	r0, [r4, #10]
 800348c:	2014      	movs	r0, #20
 800348e:	f7ff f9b4 	bl	80027fa <CPUCF+0x22>
 8003492:	7a61      	ldrb	r1, [r4, #9]
 8003494:	8965      	ldrh	r5, [r4, #10]
 8003496:	0409      	lsls	r1, r1, #16
 8003498:	4329      	orrs	r1, r5
 800349a:	4e6d      	ldr	r6, [pc, #436]	; (8003650 <CPUCF+0xe78>)
 800349c:	2001      	movs	r0, #1
 800349e:	f001 fb5c 	bl	8004b5a <CPU+0x14c6>
 80034a2:	7a63      	ldrb	r3, [r4, #9]
 80034a4:	1c69      	adds	r1, r5, #1
 80034a6:	0409      	lsls	r1, r1, #16
 80034a8:	041b      	lsls	r3, r3, #16
 80034aa:	0c09      	lsrs	r1, r1, #16
 80034ac:	71e0      	strb	r0, [r4, #7]
 80034ae:	4319      	orrs	r1, r3
 80034b0:	2001      	movs	r0, #1
 80034b2:	f001 fb52 	bl	8004b5a <CPU+0x14c6>
 80034b6:	71a0      	strb	r0, [r4, #6]
 80034b8:	2014      	movs	r0, #20
 80034ba:	f7ff f99e 	bl	80027fa <CPUCF+0x22>
 80034be:	7a61      	ldrb	r1, [r4, #9]
 80034c0:	8965      	ldrh	r5, [r4, #10]
 80034c2:	0409      	lsls	r1, r1, #16
 80034c4:	4329      	orrs	r1, r5
 80034c6:	4e62      	ldr	r6, [pc, #392]	; (8003650 <CPUCF+0xe78>)
 80034c8:	2001      	movs	r0, #1
 80034ca:	f001 fb46 	bl	8004b5a <CPU+0x14c6>
 80034ce:	7a63      	ldrb	r3, [r4, #9]
 80034d0:	1c69      	adds	r1, r5, #1
 80034d2:	0409      	lsls	r1, r1, #16
 80034d4:	041b      	lsls	r3, r3, #16
 80034d6:	0c09      	lsrs	r1, r1, #16
 80034d8:	70e0      	strb	r0, [r4, #3]
 80034da:	4319      	orrs	r1, r3
 80034dc:	2001      	movs	r0, #1
 80034de:	f001 fb3c 	bl	8004b5a <CPU+0x14c6>
 80034e2:	70a0      	strb	r0, [r4, #2]
 80034e4:	2014      	movs	r0, #20
 80034e6:	f7ff f988 	bl	80027fa <CPUCF+0x22>
 80034ea:	8961      	ldrh	r1, [r4, #10]
 80034ec:	88e0      	ldrh	r0, [r4, #6]
 80034ee:	4b59      	ldr	r3, [pc, #356]	; (8003654 <CPUCF+0xe7c>)
 80034f0:	f001 fb30 	bl	8004b54 <CPU+0x14c0>
 80034f4:	80e0      	strh	r0, [r4, #6]
 80034f6:	2010      	movs	r0, #16
 80034f8:	f7ff f97f 	bl	80027fa <CPUCF+0x22>
 80034fc:	88e0      	ldrh	r0, [r4, #6]
 80034fe:	4b55      	ldr	r3, [pc, #340]	; (8003654 <CPUCF+0xe7c>)
 8003500:	0001      	movs	r1, r0
 8003502:	f001 fb27 	bl	8004b54 <CPU+0x14c0>
 8003506:	80e0      	strh	r0, [r4, #6]
 8003508:	2010      	movs	r0, #16
 800350a:	f7ff f976 	bl	80027fa <CPUCF+0x22>
 800350e:	2001      	movs	r0, #1
 8003510:	4951      	ldr	r1, [pc, #324]	; (8003658 <CPUCF+0xe80>)
 8003512:	4b52      	ldr	r3, [pc, #328]	; (800365c <CPUCF+0xe84>)
 8003514:	f001 fb1e 	bl	8004b54 <CPU+0x14c0>
 8003518:	2010      	movs	r0, #16
 800351a:	f7ff f96e 	bl	80027fa <CPUCF+0x22>
 800351e:	2040      	movs	r0, #64	; 0x40
 8003520:	f7ff f96b 	bl	80027fa <CPUCF+0x22>
 8003524:	8861      	ldrh	r1, [r4, #2]
 8003526:	8a60      	ldrh	r0, [r4, #18]
 8003528:	4b4a      	ldr	r3, [pc, #296]	; (8003654 <CPUCF+0xe7c>)
 800352a:	f001 fb13 	bl	8004b54 <CPU+0x14c0>
 800352e:	8260      	strh	r0, [r4, #18]
 8003530:	2010      	movs	r0, #16
 8003532:	f7ff f962 	bl	80027fa <CPUCF+0x22>
 8003536:	2001      	movs	r0, #1
 8003538:	4949      	ldr	r1, [pc, #292]	; (8003660 <CPUCF+0xe88>)
 800353a:	4b48      	ldr	r3, [pc, #288]	; (800365c <CPUCF+0xe84>)
 800353c:	f001 fb0a 	bl	8004b54 <CPU+0x14c0>
 8003540:	2010      	movs	r0, #16
 8003542:	f7ff f95a 	bl	80027fa <CPUCF+0x22>
 8003546:	8961      	ldrh	r1, [r4, #10]
 8003548:	88e0      	ldrh	r0, [r4, #6]
 800354a:	4b46      	ldr	r3, [pc, #280]	; (8003664 <CPUCF+0xe8c>)
 800354c:	f001 fb02 	bl	8004b54 <CPU+0x14c0>
 8003550:	80e0      	strh	r0, [r4, #6]
 8003552:	2010      	movs	r0, #16
 8003554:	f7ff f951 	bl	80027fa <CPUCF+0x22>
 8003558:	88e0      	ldrh	r0, [r4, #6]
 800355a:	4b42      	ldr	r3, [pc, #264]	; (8003664 <CPUCF+0xe8c>)
 800355c:	0001      	movs	r1, r0
 800355e:	f001 faf9 	bl	8004b54 <CPU+0x14c0>
 8003562:	80e0      	strh	r0, [r4, #6]
 8003564:	2010      	movs	r0, #16
 8003566:	f7ff f948 	bl	80027fa <CPUCF+0x22>
 800356a:	8861      	ldrh	r1, [r4, #2]
 800356c:	88e0      	ldrh	r0, [r4, #6]
 800356e:	4b3d      	ldr	r3, [pc, #244]	; (8003664 <CPUCF+0xe8c>)
 8003570:	f001 faf0 	bl	8004b54 <CPU+0x14c0>
 8003574:	80e0      	strh	r0, [r4, #6]
 8003576:	2010      	movs	r0, #16
 8003578:	f7ff f93f 	bl	80027fa <CPUCF+0x22>
 800357c:	89e1      	ldrh	r1, [r4, #14]
 800357e:	88e0      	ldrh	r0, [r4, #6]
 8003580:	4b34      	ldr	r3, [pc, #208]	; (8003654 <CPUCF+0xe7c>)
 8003582:	f001 fae7 	bl	8004b54 <CPU+0x14c0>
 8003586:	80e0      	strh	r0, [r4, #6]
 8003588:	2010      	movs	r0, #16
 800358a:	f7ff f936 	bl	80027fa <CPUCF+0x22>
 800358e:	89e3      	ldrh	r3, [r4, #14]
 8003590:	2008      	movs	r0, #8
 8003592:	8063      	strh	r3, [r4, #2]
 8003594:	f7ff f931 	bl	80027fa <CPUCF+0x22>
 8003598:	88e3      	ldrh	r3, [r4, #6]
 800359a:	2008      	movs	r0, #8
 800359c:	8063      	strh	r3, [r4, #2]
 800359e:	f7ff f92c 	bl	80027fa <CPUCF+0x22>
 80035a2:	7b61      	ldrb	r1, [r4, #13]
 80035a4:	89e5      	ldrh	r5, [r4, #14]
 80035a6:	0409      	lsls	r1, r1, #16
 80035a8:	7be2      	ldrb	r2, [r4, #15]
 80035aa:	4329      	orrs	r1, r5
 80035ac:	2001      	movs	r0, #1
 80035ae:	4e27      	ldr	r6, [pc, #156]	; (800364c <CPUCF+0xe74>)
 80035b0:	f001 fad3 	bl	8004b5a <CPU+0x14c6>
 80035b4:	7b63      	ldrb	r3, [r4, #13]
 80035b6:	1c69      	adds	r1, r5, #1
 80035b8:	0409      	lsls	r1, r1, #16
 80035ba:	041b      	lsls	r3, r3, #16
 80035bc:	0c09      	lsrs	r1, r1, #16
 80035be:	2001      	movs	r0, #1
 80035c0:	7ba2      	ldrb	r2, [r4, #14]
 80035c2:	4319      	orrs	r1, r3
 80035c4:	f001 fac9 	bl	8004b5a <CPU+0x14c6>
 80035c8:	2014      	movs	r0, #20
 80035ca:	f7ff f916 	bl	80027fa <CPUCF+0x22>
 80035ce:	89e1      	ldrh	r1, [r4, #14]
 80035d0:	88e0      	ldrh	r0, [r4, #6]
 80035d2:	4b20      	ldr	r3, [pc, #128]	; (8003654 <CPUCF+0xe7c>)
 80035d4:	f001 fabe 	bl	8004b54 <CPU+0x14c0>
 80035d8:	2010      	movs	r0, #16
 80035da:	f7ff f90e 	bl	80027fa <CPUCF+0x22>
 80035de:	8961      	ldrh	r1, [r4, #10]
 80035e0:	88e0      	ldrh	r0, [r4, #6]
 80035e2:	4b1c      	ldr	r3, [pc, #112]	; (8003654 <CPUCF+0xe7c>)
 80035e4:	f001 fab6 	bl	8004b54 <CPU+0x14c0>
 80035e8:	2010      	movs	r0, #16
 80035ea:	f7ff f906 	bl	80027fa <CPUCF+0x22>
 80035ee:	88e0      	ldrh	r0, [r4, #6]
 80035f0:	4b18      	ldr	r3, [pc, #96]	; (8003654 <CPUCF+0xe7c>)
 80035f2:	0001      	movs	r1, r0
 80035f4:	f001 faae 	bl	8004b54 <CPU+0x14c0>
 80035f8:	2010      	movs	r0, #16
 80035fa:	f7ff f8fe 	bl	80027fa <CPUCF+0x22>
 80035fe:	8861      	ldrh	r1, [r4, #2]
 8003600:	88e0      	ldrh	r0, [r4, #6]
 8003602:	4b14      	ldr	r3, [pc, #80]	; (8003654 <CPUCF+0xe7c>)
 8003604:	f001 faa6 	bl	8004b54 <CPU+0x14c0>
 8003608:	2010      	movs	r0, #16
 800360a:	f7ff f8f6 	bl	80027fa <CPUCF+0x22>
 800360e:	8963      	ldrh	r3, [r4, #10]
 8003610:	2008      	movs	r0, #8
 8003612:	81e3      	strh	r3, [r4, #14]
 8003614:	f7ff f8f1 	bl	80027fa <CPUCF+0x22>
 8003618:	88e3      	ldrh	r3, [r4, #6]
 800361a:	2008      	movs	r0, #8
 800361c:	81e3      	strh	r3, [r4, #14]
 800361e:	f7ff f8ec 	bl	80027fa <CPUCF+0x22>
 8003622:	8863      	ldrh	r3, [r4, #2]
 8003624:	2008      	movs	r0, #8
 8003626:	81e3      	strh	r3, [r4, #14]
 8003628:	f7ff f8e7 	bl	80027fa <CPUCF+0x22>
 800362c:	89e3      	ldrh	r3, [r4, #14]
 800362e:	2008      	movs	r0, #8
 8003630:	8163      	strh	r3, [r4, #10]
 8003632:	f7ff f8e2 	bl	80027fa <CPUCF+0x22>
 8003636:	8a63      	ldrh	r3, [r4, #18]
 8003638:	2008      	movs	r0, #8
 800363a:	81e3      	strh	r3, [r4, #14]
 800363c:	f7ff f8dd 	bl	80027fa <CPUCF+0x22>
 8003640:	88e3      	ldrh	r3, [r4, #6]
 8003642:	2008      	movs	r0, #8
 8003644:	8163      	strh	r3, [r4, #10]
 8003646:	f7ff f8d8 	bl	80027fa <CPUCF+0x22>
 800364a:	46c0      	nop			; (mov r8, r8)
 800364c:	08004be9 	stmdaeq	r0, {r0, r3, r5, r6, r7, r8, r9, fp, lr}
 8003650:	08004b5d 	stmdaeq	r0, {r0, r2, r3, r4, r6, r8, r9, fp, lr}
 8003654:	08005599 	stmdaeq	r0, {r0, r3, r4, r7, r8, sl, ip, lr}
 8003658:	000046cf 	andeq	r4, r0, pc, asr #13
 800365c:	080060d5 	stmdaeq	r0, {r0, r2, r4, r6, r7, sp, lr}
 8003660:	000047cf 	andeq	r4, r0, pc, asr #15
 8003664:	08005999 	stmdaeq	r0, {r0, r3, r4, r7, r8, fp, ip, lr}
 8003668:	8863      	ldrh	r3, [r4, #2]
 800366a:	2008      	movs	r0, #8
 800366c:	8163      	strh	r3, [r4, #10]
 800366e:	f7ff f8c4 	bl	80027fa <CPUCF+0x22>
 8003672:	89e3      	ldrh	r3, [r4, #14]
 8003674:	2008      	movs	r0, #8
 8003676:	80e3      	strh	r3, [r4, #6]
 8003678:	f7ff f8bf 	bl	80027fa <CPUCF+0x22>
 800367c:	0200      	lsls	r0, r0, #8
 800367e:	0001      	movs	r1, r0
 8003680:	4b03      	ldr	r3, [pc, #12]	; (8003690 <CPUCF+0xeb8>)
 8003682:	2000      	movs	r0, #0
 8003684:	31cf      	adds	r1, #207	; 0xcf
 8003686:	f001 fa65 	bl	8004b54 <CPU+0x14c0>
 800368a:	2004      	movs	r0, #4
 800368c:	f7ff f8b5 	bl	80027fa <CPUCF+0x22>
 8003690:	080060d5 	stmdaeq	r0, {r0, r2, r4, r6, r7, sp, lr}

08003694 <CPU>:
 8003694:	4ad6      	ldr	r2, [pc, #856]	; (80039f0 <CPU+0x35c>)
 8003696:	b570      	push	{r4, r5, r6, lr}
 8003698:	6813      	ldr	r3, [r2, #0]
 800369a:	1c59      	adds	r1, r3, #1
 800369c:	6011      	str	r1, [r2, #0]
 800369e:	4ad5      	ldr	r2, [pc, #852]	; (80039f4 <CPU+0x360>)
 80036a0:	5cd3      	ldrb	r3, [r2, r3]
 80036a2:	4ad5      	ldr	r2, [pc, #852]	; (80039f8 <CPU+0x364>)
 80036a4:	009b      	lsls	r3, r3, #2
 80036a6:	58d3      	ldr	r3, [r2, r3]
 80036a8:	469f      	mov	pc, r3
 80036aa:	4bd4      	ldr	r3, [pc, #848]	; (80039fc <CPU+0x368>)
 80036ac:	f001 fa52 	bl	8004b54 <CPU+0x14c0>
 80036b0:	4bd3      	ldr	r3, [pc, #844]	; (8003a00 <CPU+0x36c>)
 80036b2:	f001 fa4f 	bl	8004b54 <CPU+0x14c0>
 80036b6:	2018      	movs	r0, #24
 80036b8:	bc70      	pop	{r4, r5, r6}
 80036ba:	bc02      	pop	{r1}
 80036bc:	4708      	bx	r1
 80036be:	4bd1      	ldr	r3, [pc, #836]	; (8003a04 <CPU+0x370>)
 80036c0:	f001 fa48 	bl	8004b54 <CPU+0x14c0>
 80036c4:	0600      	lsls	r0, r0, #24
 80036c6:	4bd0      	ldr	r3, [pc, #832]	; (8003a08 <CPU+0x374>)
 80036c8:	1600      	asrs	r0, r0, #24
 80036ca:	f001 fa43 	bl	8004b54 <CPU+0x14c0>
 80036ce:	4bcf      	ldr	r3, [pc, #828]	; (8003a0c <CPU+0x378>)
 80036d0:	f001 fa40 	bl	8004b54 <CPU+0x14c0>
 80036d4:	2008      	movs	r0, #8
 80036d6:	e7ef      	b.n	80036b8 <CPU+0x24>
 80036d8:	4bcd      	ldr	r3, [pc, #820]	; (8003a10 <CPU+0x37c>)
 80036da:	78d9      	ldrb	r1, [r3, #3]
 80036dc:	090a      	lsrs	r2, r1, #4
 80036de:	709a      	strb	r2, [r3, #2]
 80036e0:	220f      	movs	r2, #15
 80036e2:	400a      	ands	r2, r1
 80036e4:	70da      	strb	r2, [r3, #3]
 80036e6:	2008      	movs	r0, #8
 80036e8:	e7e6      	b.n	80036b8 <CPU+0x24>
 80036ea:	230f      	movs	r3, #15
 80036ec:	4ac8      	ldr	r2, [pc, #800]	; (8003a10 <CPU+0x37c>)
 80036ee:	78d1      	ldrb	r1, [r2, #3]
 80036f0:	400b      	ands	r3, r1
 80036f2:	7891      	ldrb	r1, [r2, #2]
 80036f4:	0109      	lsls	r1, r1, #4
 80036f6:	430b      	orrs	r3, r1
 80036f8:	70d3      	strb	r3, [r2, #3]
 80036fa:	2008      	movs	r0, #8
 80036fc:	e7dc      	b.n	80036b8 <CPU+0x24>
 80036fe:	4dc1      	ldr	r5, [pc, #772]	; (8003a04 <CPU+0x370>)
 8003700:	f001 fa2a 	bl	8004b58 <CPU+0x14c4>
 8003704:	0004      	movs	r4, r0
 8003706:	f001 fa27 	bl	8004b58 <CPU+0x14c4>
 800370a:	4bc1      	ldr	r3, [pc, #772]	; (8003a10 <CPU+0x37c>)
 800370c:	6999      	ldr	r1, [r3, #24]
 800370e:	0002      	movs	r2, r0
 8003710:	1861      	adds	r1, r4, r1
 8003712:	2001      	movs	r0, #1
 8003714:	4bbf      	ldr	r3, [pc, #764]	; (8003a14 <CPU+0x380>)
 8003716:	f001 fa1d 	bl	8004b54 <CPU+0x14c0>
 800371a:	2010      	movs	r0, #16
 800371c:	e7cc      	b.n	80036b8 <CPU+0x24>
 800371e:	4db9      	ldr	r5, [pc, #740]	; (8003a04 <CPU+0x370>)
 8003720:	f001 fa1a 	bl	8004b58 <CPU+0x14c4>
 8003724:	0004      	movs	r4, r0
 8003726:	f001 fa17 	bl	8004b58 <CPU+0x14c4>
 800372a:	0005      	movs	r5, r0
 800372c:	4bb8      	ldr	r3, [pc, #736]	; (8003a10 <CPU+0x37c>)
 800372e:	6999      	ldr	r1, [r3, #24]
 8003730:	2001      	movs	r0, #1
 8003732:	1861      	adds	r1, r4, r1
 8003734:	4bb8      	ldr	r3, [pc, #736]	; (8003a18 <CPU+0x384>)
 8003736:	f001 fa0d 	bl	8004b54 <CPU+0x14c0>
 800373a:	0029      	movs	r1, r5
 800373c:	4bb7      	ldr	r3, [pc, #732]	; (8003a1c <CPU+0x388>)
 800373e:	f001 fa09 	bl	8004b54 <CPU+0x14c0>
 8003742:	2010      	movs	r0, #16
 8003744:	e7b8      	b.n	80036b8 <CPU+0x24>
 8003746:	4daf      	ldr	r5, [pc, #700]	; (8003a04 <CPU+0x370>)
 8003748:	f001 fa06 	bl	8004b58 <CPU+0x14c4>
 800374c:	0004      	movs	r4, r0
 800374e:	f001 fa03 	bl	8004b58 <CPU+0x14c4>
 8003752:	0005      	movs	r5, r0
 8003754:	4bae      	ldr	r3, [pc, #696]	; (8003a10 <CPU+0x37c>)
 8003756:	6999      	ldr	r1, [r3, #24]
 8003758:	2001      	movs	r0, #1
 800375a:	1861      	adds	r1, r4, r1
 800375c:	4bae      	ldr	r3, [pc, #696]	; (8003a18 <CPU+0x384>)
 800375e:	f001 f9f9 	bl	8004b54 <CPU+0x14c0>
 8003762:	0029      	movs	r1, r5
 8003764:	4bae      	ldr	r3, [pc, #696]	; (8003a20 <CPU+0x38c>)
 8003766:	f001 f9f5 	bl	8004b54 <CPU+0x14c0>
 800376a:	2010      	movs	r0, #16
 800376c:	e7a4      	b.n	80036b8 <CPU+0x24>
 800376e:	4da5      	ldr	r5, [pc, #660]	; (8003a04 <CPU+0x370>)
 8003770:	f001 f9f2 	bl	8004b58 <CPU+0x14c4>
 8003774:	0004      	movs	r4, r0
 8003776:	f001 f9ef 	bl	8004b58 <CPU+0x14c4>
 800377a:	0005      	movs	r5, r0
 800377c:	4ba4      	ldr	r3, [pc, #656]	; (8003a10 <CPU+0x37c>)
 800377e:	699b      	ldr	r3, [r3, #24]
 8003780:	18e4      	adds	r4, r4, r3
 8003782:	0021      	movs	r1, r4
 8003784:	4ba4      	ldr	r3, [pc, #656]	; (8003a18 <CPU+0x384>)
 8003786:	2001      	movs	r0, #1
 8003788:	f001 f9e4 	bl	8004b54 <CPU+0x14c0>
 800378c:	0029      	movs	r1, r5
 800378e:	4ba5      	ldr	r3, [pc, #660]	; (8003a24 <CPU+0x390>)
 8003790:	f001 f9e0 	bl	8004b54 <CPU+0x14c0>
 8003794:	0021      	movs	r1, r4
 8003796:	0002      	movs	r2, r0
 8003798:	4b9e      	ldr	r3, [pc, #632]	; (8003a14 <CPU+0x380>)
 800379a:	2001      	movs	r0, #1
 800379c:	f001 f9da 	bl	8004b54 <CPU+0x14c0>
 80037a0:	2014      	movs	r0, #20
 80037a2:	e789      	b.n	80036b8 <CPU+0x24>
 80037a4:	4d97      	ldr	r5, [pc, #604]	; (8003a04 <CPU+0x370>)
 80037a6:	f001 f9d7 	bl	8004b58 <CPU+0x14c4>
 80037aa:	0004      	movs	r4, r0
 80037ac:	f001 f9d4 	bl	8004b58 <CPU+0x14c4>
 80037b0:	0005      	movs	r5, r0
 80037b2:	4b97      	ldr	r3, [pc, #604]	; (8003a10 <CPU+0x37c>)
 80037b4:	699b      	ldr	r3, [r3, #24]
 80037b6:	18e4      	adds	r4, r4, r3
 80037b8:	0021      	movs	r1, r4
 80037ba:	4b97      	ldr	r3, [pc, #604]	; (8003a18 <CPU+0x384>)
 80037bc:	2001      	movs	r0, #1
 80037be:	f001 f9c9 	bl	8004b54 <CPU+0x14c0>
 80037c2:	0029      	movs	r1, r5
 80037c4:	4b98      	ldr	r3, [pc, #608]	; (8003a28 <CPU+0x394>)
 80037c6:	f001 f9c5 	bl	8004b54 <CPU+0x14c0>
 80037ca:	0021      	movs	r1, r4
 80037cc:	0002      	movs	r2, r0
 80037ce:	4b91      	ldr	r3, [pc, #580]	; (8003a14 <CPU+0x380>)
 80037d0:	2001      	movs	r0, #1
 80037d2:	f001 f9bf 	bl	8004b54 <CPU+0x14c0>
 80037d6:	2014      	movs	r0, #20
 80037d8:	e76e      	b.n	80036b8 <CPU+0x24>
 80037da:	4d8a      	ldr	r5, [pc, #552]	; (8003a04 <CPU+0x370>)
 80037dc:	f001 f9bc 	bl	8004b58 <CPU+0x14c4>
 80037e0:	0004      	movs	r4, r0
 80037e2:	f001 f9b9 	bl	8004b58 <CPU+0x14c4>
 80037e6:	0005      	movs	r5, r0
 80037e8:	4b89      	ldr	r3, [pc, #548]	; (8003a10 <CPU+0x37c>)
 80037ea:	699b      	ldr	r3, [r3, #24]
 80037ec:	18e4      	adds	r4, r4, r3
 80037ee:	0021      	movs	r1, r4
 80037f0:	4b89      	ldr	r3, [pc, #548]	; (8003a18 <CPU+0x384>)
 80037f2:	2001      	movs	r0, #1
 80037f4:	f001 f9ae 	bl	8004b54 <CPU+0x14c0>
 80037f8:	0029      	movs	r1, r5
 80037fa:	4b88      	ldr	r3, [pc, #544]	; (8003a1c <CPU+0x388>)
 80037fc:	f001 f9aa 	bl	8004b54 <CPU+0x14c0>
 8003800:	0021      	movs	r1, r4
 8003802:	0002      	movs	r2, r0
 8003804:	4b83      	ldr	r3, [pc, #524]	; (8003a14 <CPU+0x380>)
 8003806:	2001      	movs	r0, #1
 8003808:	f001 f9a4 	bl	8004b54 <CPU+0x14c0>
 800380c:	2014      	movs	r0, #20
 800380e:	e753      	b.n	80036b8 <CPU+0x24>
 8003810:	4b7a      	ldr	r3, [pc, #488]	; (80039fc <CPU+0x368>)
 8003812:	f001 f99f 	bl	8004b54 <CPU+0x14c0>
 8003816:	4b7e      	ldr	r3, [pc, #504]	; (8003a10 <CPU+0x37c>)
 8003818:	0001      	movs	r1, r0
 800381a:	89d8      	ldrh	r0, [r3, #14]
 800381c:	4b83      	ldr	r3, [pc, #524]	; (8003a2c <CPU+0x398>)
 800381e:	f001 f999 	bl	8004b54 <CPU+0x14c0>
 8003822:	200c      	movs	r0, #12
 8003824:	e748      	b.n	80036b8 <CPU+0x24>
 8003826:	4b75      	ldr	r3, [pc, #468]	; (80039fc <CPU+0x368>)
 8003828:	f001 f994 	bl	8004b54 <CPU+0x14c0>
 800382c:	4b78      	ldr	r3, [pc, #480]	; (8003a10 <CPU+0x37c>)
 800382e:	0001      	movs	r1, r0
 8003830:	8958      	ldrh	r0, [r3, #10]
 8003832:	4b7e      	ldr	r3, [pc, #504]	; (8003a2c <CPU+0x398>)
 8003834:	f001 f98e 	bl	8004b54 <CPU+0x14c0>
 8003838:	200c      	movs	r0, #12
 800383a:	e73d      	b.n	80036b8 <CPU+0x24>
 800383c:	4b6f      	ldr	r3, [pc, #444]	; (80039fc <CPU+0x368>)
 800383e:	f001 f989 	bl	8004b54 <CPU+0x14c0>
 8003842:	4b73      	ldr	r3, [pc, #460]	; (8003a10 <CPU+0x37c>)
 8003844:	0001      	movs	r1, r0
 8003846:	88d8      	ldrh	r0, [r3, #6]
 8003848:	4b78      	ldr	r3, [pc, #480]	; (8003a2c <CPU+0x398>)
 800384a:	f001 f983 	bl	8004b54 <CPU+0x14c0>
 800384e:	200c      	movs	r0, #12
 8003850:	e732      	b.n	80036b8 <CPU+0x24>
 8003852:	4b6a      	ldr	r3, [pc, #424]	; (80039fc <CPU+0x368>)
 8003854:	f001 f97e 	bl	8004b54 <CPU+0x14c0>
 8003858:	4b6d      	ldr	r3, [pc, #436]	; (8003a10 <CPU+0x37c>)
 800385a:	0001      	movs	r1, r0
 800385c:	8858      	ldrh	r0, [r3, #2]
 800385e:	4b73      	ldr	r3, [pc, #460]	; (8003a2c <CPU+0x398>)
 8003860:	f001 f978 	bl	8004b54 <CPU+0x14c0>
 8003864:	200c      	movs	r0, #12
 8003866:	e727      	b.n	80036b8 <CPU+0x24>
 8003868:	4b64      	ldr	r3, [pc, #400]	; (80039fc <CPU+0x368>)
 800386a:	f001 f973 	bl	8004b54 <CPU+0x14c0>
 800386e:	4c68      	ldr	r4, [pc, #416]	; (8003a10 <CPU+0x37c>)
 8003870:	0001      	movs	r1, r0
 8003872:	4b6e      	ldr	r3, [pc, #440]	; (8003a2c <CPU+0x398>)
 8003874:	89e0      	ldrh	r0, [r4, #14]
 8003876:	f001 f96d 	bl	8004b54 <CPU+0x14c0>
 800387a:	81e0      	strh	r0, [r4, #14]
 800387c:	200c      	movs	r0, #12
 800387e:	e71b      	b.n	80036b8 <CPU+0x24>
 8003880:	4b5e      	ldr	r3, [pc, #376]	; (80039fc <CPU+0x368>)
 8003882:	f001 f967 	bl	8004b54 <CPU+0x14c0>
 8003886:	4c62      	ldr	r4, [pc, #392]	; (8003a10 <CPU+0x37c>)
 8003888:	0001      	movs	r1, r0
 800388a:	4b68      	ldr	r3, [pc, #416]	; (8003a2c <CPU+0x398>)
 800388c:	8960      	ldrh	r0, [r4, #10]
 800388e:	f001 f961 	bl	8004b54 <CPU+0x14c0>
 8003892:	8160      	strh	r0, [r4, #10]
 8003894:	200c      	movs	r0, #12
 8003896:	e70f      	b.n	80036b8 <CPU+0x24>
 8003898:	4b58      	ldr	r3, [pc, #352]	; (80039fc <CPU+0x368>)
 800389a:	f001 f95b 	bl	8004b54 <CPU+0x14c0>
 800389e:	4c5c      	ldr	r4, [pc, #368]	; (8003a10 <CPU+0x37c>)
 80038a0:	0001      	movs	r1, r0
 80038a2:	4b62      	ldr	r3, [pc, #392]	; (8003a2c <CPU+0x398>)
 80038a4:	88e0      	ldrh	r0, [r4, #6]
 80038a6:	f001 f955 	bl	8004b54 <CPU+0x14c0>
 80038aa:	80e0      	strh	r0, [r4, #6]
 80038ac:	200c      	movs	r0, #12
 80038ae:	e703      	b.n	80036b8 <CPU+0x24>
 80038b0:	4b52      	ldr	r3, [pc, #328]	; (80039fc <CPU+0x368>)
 80038b2:	f001 f94f 	bl	8004b54 <CPU+0x14c0>
 80038b6:	4c56      	ldr	r4, [pc, #344]	; (8003a10 <CPU+0x37c>)
 80038b8:	0001      	movs	r1, r0
 80038ba:	4b5c      	ldr	r3, [pc, #368]	; (8003a2c <CPU+0x398>)
 80038bc:	8860      	ldrh	r0, [r4, #2]
 80038be:	f001 f949 	bl	8004b54 <CPU+0x14c0>
 80038c2:	8060      	strh	r0, [r4, #2]
 80038c4:	200c      	movs	r0, #12
 80038c6:	e6f7      	b.n	80036b8 <CPU+0x24>
 80038c8:	f7fe ff86 	bl	80027d8 <CPUCF>
 80038cc:	e6f4      	b.n	80036b8 <CPU+0x24>
 80038ce:	f7fc fca7 	bl	8000220 <CPUCE>
 80038d2:	e6f1      	b.n	80036b8 <CPU+0x24>
 80038d4:	4c4e      	ldr	r4, [pc, #312]	; (8003a10 <CPU+0x37c>)
